(dp0
I0
V1200isplenty
p1
sI1
V1911
p2
sI2
V195
p3
sI3
V19KidsandCounting
p4
sI4
V2007scape
p5
sI5
V240sx
p6
sI6
V24hoursupport
p7
sI7
V30ROCK
p8
sI8
V350z
p9
sI9
V3DS
p10
sI10
V3DSdeals
p11
sI11
V3Dmodeling
p12
sI12
V3Dprinting
p13
sI13
V3amjokes
p14
sI14
V3dsFCswap
p15
sI15
V3dshacks
p16
sI16
V40kLore
p17
sI17
V40krpg
p18
sI18
V49ers
p19
sI19
V4ChanMeta
p20
sI20
V4PanelCringe
p21
sI21
V4Runner
p22
sI22
V4Xgaming
p23
sI23
V4chan
p24
sI24
V4hourbodyslowcarb
p25
sI25
V4x4
p26
sI26
V50B
p27
sI27
V52book
p28
sI28
V59s
p29
sI29
V60fpsporn
p30
sI30
V6thForm
p31
sI31
V7daystodie
p32
sI32
V8chan
p33
sI33
V90daysgoal
p34
sI34
V911truth
p35
sI35
VA858DE45F56D9BC9
p36
sI36
VABCDesis
p37
sI37
VABDL
p38
sI38
VABraThatFits
p39
sI39
VACMilan
p40
sI40
VACON_Support
p41
sI41
VACTrade
p42
sI42
VADHD
p43
sI43
VAFL
p44
sI44
VALORP
p45
sI45
VAMA
p46
sI46
VAMRsucks
p47
sI47
VANormalDayInRussia
p48
sI48
VAPB
p49
sI49
VAPStudents
p50
sI50
VAPUSH
p51
sI51
VARG
p52
sI52
VASRoma
p53
sI53
VASU
p54
sI54
VATT
p55
sI55
VAVexchange
p56
sI56
VAZCardinals
p57
sI57
VA_irsoft
p58
sI58
VAbandonedPorn
p59
sI59
VAcademicBiblical
p60
sI60
VAcademicPsychology
p61
sI61
VAcadiana
p62
sI62
VAccounting
p63
sI63
VAccutane
p64
sI64
VAceAttorney
p65
sI65
VActionFigures
p66
sI66
VAdamCarolla
p67
sI67
VAdelaide
p68
sI68
VAdiposeAmigos
p69
sI69
VAdoptASilver
p70
sI70
VAdoptMyVillager
p71
sI71
VAdoption
p72
sI72
VAdrenalinePorn
p73
sI73
VAdvancedFitness
p74
sI74
VAdvancedRunning
p75
sI75
VAdvice
p76
sI76
VAdviceAnimals
p77
sI77
VAdviceAtheists
p78
sI78
VAfterEffects
p79
sI79
VAgMarketplace
p80
sI80
VAgainstGamerGate
p81
sI81
VAgainstTheChimpire
p82
sI82
VAgario
p83
sI83
VAgedBeauty
p84
sI84
VAirBnB
p85
sI85
VAirBrawl
p86
sI86
VAirForce
p87
sI87
VAlabama
p88
sI88
VAlbany
p89
sI89
VAlbumArtPorn
p90
sI90
VAlbuquerque
p91
sI91
VAleague
p92
sI92
VAlienBlue
p93
sI93
VAlienware
p94
sI94
VAlienwareAlpha
p95
sI95
VAlisonBrie
p96
sI96
VAllThingsTerran
p97
sI97
VAllergies
p98
sI98
VAmIFreeToGo
p99
sI99
VAmISexy
p100
sI100
VAmateur
p101
sI101
VAmateurArchives
p102
sI102
VAmateurRoomPorn
p103
sI103
VAmd
p104
sI104
VAmericanHorrorStory
p105
sI105
VAmericanLeagueEast
p106
sI106
VAmiiboCanada
p107
sI107
VAmiiboMichigan
p108
sI108
VAmsterdam
p109
sI109
VAnaheimDucks
p110
sI110
VAnalGW
p111
sI111
VAnarchism
p112
sI112
VAnarcho_Capitalism
p113
sI113
VAnarchy101
p114
sI114
VAncientCoins
p115
sI115
VAndroid
p116
sI116
VAndroidGaming
p117
sI117
VAndroidMasterRace
p118
sI118
VAndroidQuestions
p119
sI119
VAndroidTV
p120
sI120
VAndroidWear
p121
sI121
VAnimalCollective
p122
sI122
VAnimalCrossing
p123
sI123
VAnimalPorn
p124
sI124
VAnimalsBeingBros
p125
sI125
VAnimalsBeingDerps
p126
sI126
VAnimalsBeingJerks
p127
sI127
VAnimeFigures
p128
sI128
VAnimeSketch
p129
sI129
VAnimedubs
p130
sI130
VAnimesuggest
p131
sI131
VAnimewallpaper
p132
sI132
VAnnArbor
p133
sI133
VAnthropology
p134
sI134
VAntiAntiJokes
p135
sI135
VAntiJokes
p136
sI136
VAntiPOZi
p137
sI137
VAnticonsumption
p138
sI138
VAntiques
p139
sI139
VAnxiety
p140
sI140
VAnythingGoesNews
p141
sI141
VApocalypseRising
p142
sI142
VApotheosisVillage
p143
sI143
VAppHookup
p144
sI144
VAppNana
p145
sI145
VAppalachianTrail
p146
sI146
VAppleWatch
p147
sI147
VApplyingToCollege
p148
sI148
VAquaSwap
p149
sI149
VAquamarinesDen
p150
sI150
VAquariums
p151
sI151
VArchaeology
p152
sI152
VArcherFX
p153
sI153
VArchery
p154
sI154
VArchitecturePorn
p155
sI155
VArenaFPS
p156
sI156
VArgentinacirclejerk
p157
sI157
VArianaGrande
p158
sI158
VArkansas
p159
sI159
VArmoredWarfare
p160
sI160
VArt
p161
sI161
VArtCrit
p162
sI162
VArtHistory
p163
sI163
VArtJunkie
p164
sI164
VArtefactPorn
p165
sI165
VArtisanVideos
p166
sI166
VArtistLounge
p167
sI167
VAsTheClockTurns
p168
sI168
VAshens
p169
sI169
VAsheronsCall
p170
sI170
VAsianBeauty
p171
sI171
VAsianHotties
p172
sI172
VAsianLadyboners
p173
sI173
VAsianMasculinity
p174
sI174
VAsianParentStories
p175
sI175
VAsiansGoneWild
p176
sI176
VAskAHeathen
p177
sI177
VAskAcademia
p178
sI178
VAskAnthropology
p179
sI179
VAskCulinary
p180
sI180
VAskDocs
p181
sI181
VAskDoctorSmeeee
p182
sI182
VAskElectronics
p183
sI183
VAskEngineers
p184
sI184
VAskEurope
p185
sI185
VAskFeminists
p186
sI186
VAskGames
p187
sI187
VAskHR
p188
sI188
VAskHistorians
p189
sI189
VAskHistory
p190
sI190
VAskLE
p191
sI191
VAskLEO
p192
sI192
VAskLiteraryStudies
p193
sI193
VAskLosAngeles
p194
sI194
VAskMarketing
p195
sI195
VAskMen
p196
sI196
VAskMenOver30
p197
sI197
VAskNYC
p198
sI198
VAskNetsec
p199
sI199
VAskPhotography
p200
sI200
VAskPhysics
p201
sI201
VAskProgramming
p202
sI202
VAskReddit
p203
sI203
VAskRedditAfterDark
p204
sI204
VAskSF
p205
sI205
VAskScienceDiscussion
p206
sI206
VAskScienceFiction
p207
sI207
VAskSocialScience
p208
sI208
VAskStatistics
p209
sI209
VAskTechnology
p210
sI210
VAskTrollX
p211
sI211
VAskUK
p212
sI212
VAskVet
p213
sI213
VAskWomen
p214
sI214
VAskWomenOver30
p215
sI215
VAsk_Politics
p216
sI216
VAskasurvivor
p217
sI217
VAssistance
p218
sI218
VAstralProjection
p219
sI219
VAstronomy
p220
sI220
VAstros
p221
sI221
VAtlanta
p222
sI222
VAtlantaHawks
p223
sI223
VAttackontitangame
p224
sI224
VAudi
p225
sI225
VAudioCandy
p226
sI226
VAusFinance
p227
sI227
VAustin
p228
sI228
VAustralianCattleDog
p229
sI229
VAustralianMFA
p230
sI230
VAustralianMakeup
p231
sI231
VAustralianPolitics
p232
sI232
VAustria
p233
sI233
VAutoDetailing
p234
sI234
VAutoModerator
p235
sI235
VAutocross
p236
sI236
VAutoflowers
p237
sI237
VAutomate
p238
sI238
VAutos
p239
sI239
VAvengers
p240
sI240
VAwesomeCarMods
p241
sI241
VAwesomenauts
p242
sI242
VAwwducational
p243
sI243
VAwww
p244
sI244
VBABYMETAL
p245
sI245
VBBQ
p246
sI246
VBBW
p247
sI247
VBBWGW
p248
sI248
VBDSMGW
p249
sI249
VBDSMcommunity
p250
sI250
VBDSMpersonals
p251
sI251
VBF_Hardline
p252
sI252
VBHMGoneWild
p253
sI253
VBMW
p254
sI254
VBPD
p255
sI255
VBPDlovedones
p256
sI256
VBSA
p257
sI257
VBSG
p258
sI258
VBTFC
p259
sI259
VBabyBumps
p260
sI260
VBackYardChickens
p261
sI261
VBadDragon
p262
sI262
VBadSocialScience
p263
sI263
VBad_Cop_No_Donut
p264
sI264
VBahrain
p265
sI265
VBakaNewsJP
p266
sI266
VBaking
p267
sI267
VBandnames
p268
sI268
VBanished
p269
sI269
VBanjoKazooie
p270
sI270
VBankBallExchange
p271
sI271
VBarca
p272
sI272
VBarcelona
p273
sI273
VBarefootRunning
p274
sI274
VBasicIncome
p275
sI275
VBasketball
p276
sI276
VBasketballGM
p277
sI277
VBasketballGMFantasy
p278
sI278
VBass
p279
sI279
VBatesMotel
p280
sI280
VBatmanArkham
p281
sI281
VBattleJackets
p282
sI282
VBattleNetwork
p283
sI283
VBattlefield
p284
sI284
VBattlefield_4_CTE
p285
sI285
VBayAreaAmiibros
p286
sI286
VBayStars
p287
sI287
VBeAmazed
p288
sI288
VBeardPorn
p289
sI289
VBeardedDragons
p290
sI290
VBeatmatch
p291
sI291
VBeautyAddiction
p292
sI292
VBeautyBoxes
p293
sI293
VBeekeeping
p294
sI294
VBeforeNAfterAdoption
p295
sI295
VBellingham
p296
sI296
VBerkeleysNide
p297
sI297
VBerserk
p298
sI298
VBesiege
p299
sI299
VBestOfLiveleak
p300
sI300
VBestOfOutrageCulture
p301
sI301
VBestOfReports
p302
sI302
VBestOfStreamingVideo
p303
sI303
VBestbuy
p304
sI304
VBestofVic2015
p305
sI305
VBigBoobsGW
p306
sI306
VBigBoobsGonewild
p307
sI307
VBigBrother
p308
sI308
VBikeporn
p309
sI309
VBillBurr
p310
sI310
VBioshock
p311
sI311
VBipolarReddit
p312
sI312
VBirmingham
p313
sI313
VBitTippers
p314
sI314
VBitcoin
p315
sI315
VBitcoinBeginners
p316
sI316
VBitcoinMarkets
p317
sI317
VBitcoinMining
p318
sI318
VBlackBank
p319
sI319
VBlackMetal
p320
sI320
VBlackPeopleTwitter
p321
sI321
VBlackfellas
p322
sI322
VBlacklight
p323
sI323
VBlacksmith
p324
sI324
VBladesmith
p325
sI325
VBlep
p326
sI326
VBlink182
p327
sI327
VBlocknLoad
p328
sI328
VBlogging
p329
sI329
VBloodstained
p330
sI330
VBlowjobs
p331
sI331
VBlueJackets
p332
sI332
VBoJackHorseman
p333
sI333
VBobsBurgers
p334
sI334
VBodyAcceptance
p335
sI335
VBoise
p336
sI336
VBokuNoHeroAcademia
p337
sI337
VBollywoodRealism
p338
sI338
VBombing
p339
sI339
VBondage
p340
sI340
VBonsai
p341
sI341
VBoobies
p342
sI342
VBoomBeach
p343
sI343
VBorderlands
p344
sI344
VBorderlands2
p345
sI345
VBorderlandsPreSequel
p346
sI346
VBostonBruins
p347
sI347
VBostonTerrier
p348
sI348
VBowling
p349
sI349
VBoxer
p350
sI350
VBoxing
p351
sI351
VBoxingStreams
p352
sI352
VBrampton
p353
sI353
VBravenewbies
p354
sI354
VBraveryjerk
p355
sI355
VBraves
p356
sI356
VBravoRealHousewives
p357
sI357
VBrawlhalla
p358
sI358
VBrazil
p359
sI359
VBreadit
p360
sI360
VBreakingBumps
p361
sI361
VBreedingDittos
p362
sI362
VBrewers
p363
sI363
VBriggs
p364
sI364
VBritishPolitics
p365
sI365
VBritishSuccess
p366
sI366
VBritishTV
p367
sI367
VBrogress
p368
sI368
VBrooklyn
p369
sI369
VBrowns
p370
sI370
VBrunei
p371
sI371
VBuddhism
p372
sI372
VBuddyCrossing
p373
sI373
VBudgetAudiophile
p374
sI374
VBuffalo
p375
sI375
VBuffaloWizards
p376
sI376
VBulkOrCut
p377
sI377
VBulldogs
p378
sI378
VBundesliga
p379
sI379
VBurningMan
p380
sI380
VBushcraft
p381
sI381
VBustyPetite
p382
sI382
VButtcoin
p383
sI383
VButtonOlympics
p384
sI384
VBuyItForLife
p385
sI385
VBuyMyFUTPlayer
p386
sI386
VC25K
p387
sI387
VCCW
p388
sI388
VCFA
p389
sI389
VCFB
p390
sI390
VCFBOffTopic
p391
sI391
VCFL
p392
sI392
VCGPGrey
p393
sI393
VCHERUB_RP
p394
sI394
VCHIBears
p395
sI395
VCHICubs
p396
sI396
VCK2GameOfthrones
p397
sI397
VCLG
p398
sI398
VCNC
p399
sI399
VCODZombies
p400
sI400
VCOents
p401
sI401
VCSGOJackpot
p402
sI402
VC_Programming
p403
sI403
VC_S_T
p404
sI404
VCabaloftheBuildsmiths
p405
sI405
VCableManagement
p406
sI406
VCadenMoranDiary
p407
sI407
VCafeRacers
p408
sI408
VCalPoly
p409
sI409
VCalamariRaceTeam
p410
sI410
VCalgary
p411
sI411
VCalgaryFlames
p412
sI412
VCalifornia
p413
sI413
VCallOfDuty
p414
sI414
VCalligraphy
p415
sI415
VCameras
p416
sI416
VCampHalfBloodRP
p417
sI417
VCampingGear
p418
sI418
VCampingandHiking
p419
sI419
VCanadaPolitics
p420
sI420
VCanadianForces
p421
sI421
VCanadian_ecigarette
p422
sI422
VCandidFashionPolice
p423
sI423
VCannabisExtracts
p424
sI424
VCarAV
p425
sI425
VCardinals
p426
sI426
VCartalk
p427
sI427
VCascadia
p428
sI428
VCastleClash
p429
sI429
VCasualChallengestone
p430
sI430
VCasualConversation
p431
sI431
VCasualPokemonTrades
p432
sI432
VCatan
p433
sI433
VCatholicism
p434
sI434
VCatloaf
p435
sI435
VCatsStandingUp
p436
sI436
VCatsandCosmetics
p437
sI437
VCautiousBB
p438
sI438
VCelebFakes
p439
sI439
VCelebrityButts
p440
sI440
VCelebs
p441
sI441
VCeliac
p442
sI442
VChameleons
p443
sI443
VChanceTheRapper
p444
sI444
VChargers
p445
sI445
VCharleston
p446
sI446
VCharlotte
p447
sI447
VCharlotteHornets
p448
sI448
VChattanooga
p449
sI449
VChefit
p450
sI450
VChemicalEngineering
p451
sI451
VChennai
p452
sI452
VCherokeeXJ
p453
sI453
VChevy
p454
sI454
VChiefKeef
p455
sI455
VChildrenFallingOver
p456
sI456
VChina
p457
sI457
VChineseLanguage
p458
sI458
VChipotle
p459
sI459
VChivalryGame
p460
sI460
VChoosingBeggars
p461
sI461
VChristianity
p462
sI462
VChristians
p463
sI463
VChromaRequest
p464
sI464
VChromecast
p465
sI465
VChronicPain
p466
sI466
VCigarettes
p467
sI467
VCineShots
p468
sI468
VCinema4D
p469
sI469
VCinemaSins
p470
sI470
VCinemagraphs
p471
sI471
VCircLoLjerk
p472
sI472
VCisco
p473
sI473
VCitiesSkylines
p474
sI474
VCitiesSkylinesModding
p475
sI475
VCityPorn
p476
sI476
VCivCraftAytos
p477
sI477
VCivcraft
p478
sI478
VCivcraftExchange
p479
sI479
VCivilizatonExperiment
p480
sI480
VClashOfClans
p481
sI481
VClashOfClansRecruit
p482
sI482
VCleveland
p483
sI483
VClickerHeroes
p484
sI484
VClojure
p485
sI485
VClopClop
p486
sI486
VCloud9
p487
sI487
VClubNintendoTrade
p488
sI488
VClub_Nintendo
p489
sI489
VCoCBot
p490
sI490
VCoDCompetitive
p491
sI491
VCoachella
p492
sI492
VCodAW
p493
sI493
VCoffee
p494
sI494
VCoilporn
p495
sI495
VColdplay
p496
sI496
VCollegeBasketball
p497
sI497
VColombia
p498
sI498
VColorBlind
p499
sI499
VColorado
p500
sI500
VColoradoAvalanche
p501
sI501
VColoradoRockies
p502
sI502
VColoradoSprings
p503
sI503
VColorization
p504
sI504
VColts
p505
sI505
VColumbus
p506
sI506
VCombatFootage
p507
sI507
VComcast
p508
sI508
VComicBookCollabs
p509
sI509
VCommunismWorldwide
p510
sI510
VCompTIA
p511
sI511
VCompanyOfHeroes
p512
sI512
VCompetitiveEDH
p513
sI513
VCompetitiveHS
p514
sI514
VCompetitiveHotS
p515
sI515
VCompetitiveWoW
p516
sI516
VConfusedBoners
p517
sI517
VConnecticut
p518
sI518
VConnery
p519
sI519
VConservative
p520
sI520
VConspiracyGrumps
p521
sI521
VConstantine
p522
sI522
VConstruction
p523
sI523
VContagiousLaughter
p524
sI524
VContestOfChampions
p525
sI525
VContestOfChampionsLFG
p526
sI526
VCookieClicker
p527
sI527
VCookieCollector
p528
sI528
VCookieCollector2
p529
sI529
VCooking
p530
sI530
VCoonTown
p531
sI531
VCorvette
p532
sI532
VCostco
p533
sI533
VCounterPointFestival
p534
sI534
VCoyotes
p535
sI535
VCozyPlaces
p536
sI536
VCraftBeer
p537
sI537
VCrappyDesign
p538
sI538
VCrazyHand
p539
sI539
VCrazyIdeas
p540
sI540
VCredibleDefense
p541
sI541
VCricket
p542
sI542
VCringeAnarchy
p543
sI543
VCrohnsDisease
p544
sI544
VCrossStitch
p545
sI545
VCrossView
p546
sI546
VCrowdSurf
p547
sI547
VCruciblePlaybook
p548
sI548
VCruise
p549
sI549
VCrusaderKings
p550
sI550
VCryptoCurrency
p551
sI551
VCubeWorld
p552
sI552
VCubers
p553
sI553
VCubs
p554
sI554
VCuckold
p555
sI555
VCullenMancers
p556
sI556
VCumberbitches
p557
sI557
VCuteModeSlutMode
p558
sI558
VCyberpunk
p559
sI559
VCynicalbrit
p560
sI560
VD3PS4
p561
sI561
VDAE
p562
sI562
VDC_Cinematic
p563
sI563
VDCcomics
p564
sI564
VDE_Hub
p565
sI565
VDFO
p566
sI566
VDIY
p567
sI567
VDIY_eJuice
p568
sI568
VDJs
p569
sI569
VDMB
p570
sI570
VDMT
p571
sI571
VDachshund
p572
sI572
VDadReflexes
p573
sI573
VDaftPunk
p574
sI574
VDailyTechNewsShow
p575
sI575
VDallas
p576
sI576
VDallasStars
p577
sI577
VDamnthatsinteresting
p578
sI578
VDance
p579
sI579
VDanceDanceRevolution
p580
sI580
VDaredevil
p581
sI581
VDarkEcho
p582
sI582
VDarkEnlightenment
p583
sI583
VDarkNetMarkets
p584
sI584
VDarkNetMarketsNoobs
p585
sI585
VDarkSouls2
p586
sI586
VDarkfall
p587
sI587
VDashcam
p588
sI588
VDatGuyLirik
p589
sI589
VDataHoarder
p590
sI590
VDatsun
p591
sI591
VDayZmod
p592
sI592
VDaystromInstitute
p593
sI593
VDeadBedrooms
p594
sI594
VDeadlyEighteen
p595
sI595
VDeathcore
p596
sI596
VDebate
p597
sI597
VDebateAChristian
p598
sI598
VDebateAnAtheist
p599
sI599
VDebateAnarchism
p600
sI600
VDebateFascism
p601
sI601
VDebateReligion
p602
sI602
VDebateaCommunist
p603
sI603
VDecidingToBeBetter
p604
sI604
VDeepIntoYouTube
p605
sI605
VDefenders
p606
sI606
VDegradingHoles
p607
sI607
VDelaware
p608
sI608
VDelightfullychubby
p609
sI609
VDenmark
p610
sI610
VDentistry
p611
sI611
VDenton
p612
sI612
VDenver
p613
sI613
VDenverBroncos
p614
sI614
VDepthHub
p615
sI615
VDesign
p616
sI616
VDesignJobs
p617
sI617
VDesignMyRoom
p618
sI618
VDesignPorn
p619
sI619
VDesirePath
p620
sI620
VDestiny
p621
sI621
VDestinyItemManager
p622
sI622
VDestinySherpa
p623
sI623
VDestinyTheGame
p624
sI624
VDestructiveReaders
p625
sI625
VDetroit
p626
sI626
VDetroitPistons
p627
sI627
VDetroitRedWings
p628
sI628
VDeusex
p629
sI629
VDevilMayCry
p630
sI630
VDexter
p631
sI631
VDiWHY
p632
sI632
VDiablo
p633
sI633
VDiablo3Barbarians
p634
sI634
VDiablo3Crusaders
p635
sI635
VDiablo3DemonHunters
p636
sI636
VDiablo3Monks
p637
sI637
VDiablo3Wizards
p638
sI638
VDiablo3witchdoctors
p639
sI639
VDiamondHunt
p640
sI640
VDickPics4Freedom
p641
sI641
VDiesel
p642
sI642
VDigitalPainting
p643
sI643
VDimensionalJumping
p644
sI644
VDinosaurDrawings
p645
sI645
VDinosaurs
p646
sI646
VDippingTobacco
p647
sI647
VDirtbikes
p648
sI648
VDirtySnapchat
p649
sI649
VDirtybomb
p650
sI650
VDishonoredRP
p651
sI651
VDisneyPinTrading
p652
sI652
VDisney_Infinity
p653
sI653
VDisneyland
p654
sI654
VDivorce
p655
sI655
VDjent
p656
sI656
VDnB
p657
sI657
VDnD
p658
sI658
VDnDBehindTheScreen
p659
sI659
VDnDGreentext
p660
sI660
VDoMyHomework
p661
sI661
VDocumentaries
p662
sI662
VDodge
p663
sI663
VDodgers
p664
sI664
VDoesAnybodyElse
p665
sI665
VDofus
p666
sI666
VDogShowerThoughts
p667
sI667
VDogtraining
p668
sI668
VDominations
p669
sI669
VDoom
p670
sI670
VDotA2
p671
sI671
VDota2Trade
p672
sI672
VDotaConcepts
p673
sI673
VDrag
p674
sI674
VDragonAgeCoOp
p675
sI675
VDrama
p676
sI676
VDrawForMe
p677
sI677
VDreadfort
p678
sI678
VDreadlocks
p679
sI679
VDreams
p680
sI680
VDreamtheater
p681
sI681
VDrifting
p682
sI682
VDriveclub
p683
sI683
VDrugNerds
p684
sI684
VDrugs
p685
sI685
VDualsport
p686
sI686
VDublin
p687
sI687
VDuelingCorner
p688
sI688
VDumpsterDiving
p689
sI689
VDunderMifflin
p690
sI690
VDungeonLink
p691
sI691
VDungeonsAndDragons
p692
sI692
VDvZ
p693
sI693
VDvZCirclejerk
p694
sI694
VDynastyFF
p695
sI695
VDzogchen
p696
sI696
VE30
p697
sI697
VEA_NHL
p698
sI698
VEAfifapc
p699
sI699
VECE
p700
sI700
VEDC
p701
sI701
VEDH
p702
sI702
VEDM
p703
sI703
VELTP
p704
sI704
VENFP
p705
sI705
VEOOD
p706
sI706
VEQ2
p707
sI707
VEQNext
p708
sI708
VEVEX
p709
sI709
VEarthPorn
p710
sI710
VEarwolf
p711
sI711
VEatCheapAndHealthy
p712
sI712
VEbay
p713
sI713
VEconomics
p714
sI714
VEdinburgh
p715
sI715
VEdmonton
p716
sI716
VEdmontonOilers
p717
sI717
VEesti
p718
sI718
VElPaso
p719
sI719
VElderScrolls
p720
sI720
VElectricForest
p721
sI721
VElementsGG
p722
sI722
VEliteBountyHunters
p723
sI723
VEliteDangerous
p724
sI724
VEliteTraders
p725
sI725
VElsanna
p726
sI726
VEmDrive
p727
sI727
VEmeraldPS2
p728
sI728
VEmerald_Council
p729
sI729
VEminem
p730
sI730
VEmmaWatson
p731
sI731
VEmo
p732
sI732
VEndlessLegend
p733
sI733
VEndlessWar
p734
sI734
VEndo
p735
sI735
VEngineeringPorn
p736
sI736
VEngineeringStudents
p737
sI737
VEnhancement
p738
sI738
VEnoughLibertarianSpam
p739
sI739
VEntExchange
p740
sI740
VEntomology
p741
sI741
VEntrepreneur
p742
sI742
VEntrepreneurRideAlong
p743
sI743
VEpilepsy
p744
sI744
VEquestrian
p745
sI745
VEroticRolePlay
p746
sI746
VEsperanto
p747
sI747
VEssendonFC
p748
sI748
VEtsy
p749
sI749
VEugene
p750
sI750
VEve
p751
sI751
VEverton
p752
sI752
VEverythingScience
p753
sI753
VEvolveGame
p754
sI754
VExNoContact
p755
sI755
VExpectationVsReality
p756
sI756
VExplainLikeImCalvin
p757
sI757
VExploreFiction
p758
sI758
VExposurePorn
p759
sI759
VEyebleach
p760
sI760
VF1FeederSeries
p761
sI761
VFFRecordKeeper
p762
sI762
VFFSocks
p763
sI763
VFFXIVRECRUITMENT
p764
sI764
VFIFA
p765
sI765
VFIFACoins
p766
sI766
VFL_Studio
p767
sI767
VFNaFb
p768
sI768
VFPHDiscussion
p769
sI769
VFRC
p770
sI770
VFREE
p771
sI771
VFULLCOMMUNISM
p772
sI772
VFUTMobile
p773
sI773
VFairyTailRP
p774
sI774
VFallOutBoy
p775
sI775
VFallout
p776
sI776
VFallout4
p777
sI777
VFalloutMods
p778
sI778
VFanTheories
p779
sI779
VFancyFollicles
p780
sI780
VFantasy
p781
sI781
VFantasyBookers
p782
sI782
VFantasyLCS
p783
sI783
VFantasyMLS
p784
sI784
VFantasyPL
p785
sI785
VFapDeciders
p786
sI786
VFashionReps
p787
sI787
VFavors
p788
sI788
VFeMRADebates
p789
sI789
VFedora
p790
sI790
VFeelsLikeTheFirstTime
p791
sI791
VFellowKids
p792
sI792
VFemBoys
p793
sI793
VFeminism
p794
sI794
VFemmeThoughts
p795
sI795
VFencing
p796
sI796
VFetishItems
p797
sI797
VFibromyalgia
p798
sI798
VFierceFlow
p799
sI799
VFiestaST
p800
sI800
VFifaCareers
p801
sI801
VFiftyFifty
p802
sI802
VFighters
p803
sI803
VFilmmakers
p804
sI804
VFilthyFrank
p805
sI805
VFinalFantasy
p806
sI806
VFinancialCareers
p807
sI807
VFindAUnit
p808
sI808
VFinland
p809
sI809
VFirearms
p810
sI810
VFirefighting
p811
sI811
VFireflyFestival
p812
sI812
VFireteams
p813
sI813
VFishing
p814
sI814
VFitness
p815
sI815
VFitshionVSFatshion
p816
sI816
VFiveM
p817
sI817
VFixedGearBicycle
p818
sI818
VFixxit
p819
sI819
VFlashTV
p820
sI820
VFlipping
p821
sI821
VFloridaGators
p822
sI822
VFloridaMan
p823
sI823
VFlyers
p824
sI824
VFoWtcg
p825
sI825
VFocusST
p826
sI826
VFolkPunk
p827
sI827
VFoodPorn
p828
sI828
VFoodPorn_ja
p829
sI829
VFoodforthought
p830
sI830
VFoofighters
p831
sI831
VFord
p832
sI832
VFordFocus
p833
sI833
VForeverAlone
p834
sI834
VForeverAloneWomen
p835
sI835
VForex
p836
sI836
VFormulaE
p837
sI837
VFortCollins
p838
sI838
VFortWorth
p839
sI839
VFranceLibre
p840
sI840
VFrasier
p841
sI841
VFrat
p842
sI842
VFreeBits
p843
sI843
VFreeEBOOKS
p844
sI844
VFreeGameFindings
p845
sI845
VFreeGamesOnSteam
p846
sI846
VFreeKarma
p847
sI847
VFreebuilders
p848
sI848
VFreeclams
p849
sI849
VFremantleFC
p850
sI850
VFrench
p851
sI851
VFrisson
p852
sI852
VFrontend
p853
sI853
VFrozen
p854
sI854
VFrozenfriends
p855
sI855
VFrugal
p856
sI856
VFrugalFemaleFashion
p857
sI857
VFrugal_Jerk
p858
sI858
VFuckMarryOrKill
p859
sI859
VFuckingWithNature
p860
sI860
VFulfillmentByAmazon
p861
sI861
VFullmetalAlchemist
p862
sI862
VFunnyandSad
p863
sI863
VFurryArtSchool
p864
sI864
VFutureFight
p865
sI865
VFutureWhatIf
p866
sI866
VFuturology
p867
sI867
VGCSE
p868
sI868
VGCXRep
p869
sI869
VGIRLSundPANZER
p870
sI870
VGLRP_EastBlue
p871
sI871
VGNV
p872
sI872
VGODZILLA
p873
sI873
VGTA
p874
sI874
VGTAA
p875
sI875
VGTAV
p876
sI876
VGTAV_Cruises
p877
sI877
VGTAV_Mods
p878
sI878
VGTA_Vinewood
p879
sI879
VGTAgifs
p880
sI880
VGWABackstage
p881
sI881
VGWAProfiles
p882
sI882
VGWCouples
p883
sI883
VGWNerdy
p884
sI884
VGakiNoTsukai
p885
sI885
VGalCiv
p886
sI886
VGalacticGuardians
p887
sI887
VGalaxyNote3
p888
sI888
VGalaxyS6
p889
sI889
VGameDeals
p890
sI890
VGameDealsMeta
p891
sI891
VGamePhysics
p892
sI892
VGameSale
p893
sI893
VGameStop
p894
sI894
VGameTheorists
p895
sI895
VGameTrade
p896
sI896
VGameboy
p897
sI897
VGamecube
p898
sI898
VGameofThronesRP
p899
sI899
VGamerGhazi
p900
sI900
VGamerPals
p901
sI901
VGames
p902
sI902
VGaming4Gamers
p903
sI903
VGamingcirclejerk
p904
sI904
VGasTheKikes
p905
sI905
VGayKink
p906
sI906
VGaybrosGoneWild
p907
sI907
VGaymersGoneMild
p908
sI908
VGearVR
p909
sI909
VGearsOfWar
p910
sI910
VGenderCritical
p911
sI911
VGenderCynical
p912
sI912
VGender_Critical
p913
sI913
VGenealogy
p914
sI914
VGeocentrism
p915
sI915
VGerman
p916
sI916
VGetFairShare
p917
sI917
VGetMotivated
p918
sI918
VGetStudying
p919
sI919
VGettingShredded
p920
sI920
VGhosts
p921
sI921
VGifSound
p922
sI922
VGiftofGames
p923
sI923
VGilmoreGirls
p924
sI924
VGintama
p925
sI925
VGirlGamers
p926
sI926
VGirlsFinishingTheJob
p927
sI927
VGirlsMirin
p928
sI928
VGirlswithGlasses
p929
sI929
VGiveMeTheVirus
p930
sI930
VGlitch_in_the_Matrix
p931
sI931
VGlobalOffensive
p932
sI932
VGlobalOffensiveTrade
p933
sI933
VGlobalPowers
p934
sI934
VGlocks
p935
sI935
VGoForGold
p936
sI936
VGoRVing
p937
sI937
VGoalKeepers
p938
sI938
VGolfGTI
p939
sI939
VGoneMild
p940
sI940
VGoneWildCD
p941
sI941
VGoneWildHairy
p942
sI942
VGoneWildPlus
p943
sI943
VGoneWildSmiles
p944
sI944
VGoneWildTrans
p945
sI945
VGoneWildTube
p946
sI946
VGoogleCardboard
p947
sI947
VGore
p948
sI948
VGoruck
p949
sI949
VGotham
p950
sI950
VGradSchool
p951
sI951
VGraffiti
p952
sI952
VGrandCherokee
p953
sI953
VGrandTheftAutoV
p954
sI954
VGrandTheftAutoV_PC
p955
sI955
VGraphicDesign
p956
sI956
VGrassHopperVape
p957
sI957
VGreenBayPackers
p958
sI958
VGreenDawn
p959
sI959
VGreyhounds
p960
sI960
VGripTraining
p961
sI961
VGta5Modding
p962
sI962
VGuelph
p963
sI963
VGuessTheMovie
p964
sI964
VGuildWars
p965
sI965
VGuildWarsDyeJob
p966
sI966
VGuildwars2
p967
sI967
VGuiltyPleasureMusic
p968
sI968
VGuitar
p969
sI969
VGunPorn
p970
sI970
VGundam
p971
sI971
VGunners
p972
sI972
VGunnitHallOfShame
p973
sI973
VGunpla
p974
sI974
VGunsAreCool
p975
sI975
VGunsforsale
p976
sI976
VHBOGameofThrones
p977
sI977
VHFY
p978
sI978
VHGD
p979
sI979
VHGTV_Verse
p980
sI980
VHIMYM
p981
sI981
VHITsWorthTurkingFor
p982
sI982
VHPMOR
p983
sI983
VHPfanfiction
p984
sI984
VHTML
p985
sI985
VHTT
p986
sI986
VHUKD
p987
sI987
VHUTrep
p988
sI988
VHVAC
p989
sI989
VHabs
p990
sI990
VHadToHurt
p991
sI991
VHailCorporate
p992
sI992
VHair
p993
sI993
VHaircareScience
p994
sI994
VHalfBloodHangout
p995
sI995
VHalfLife
p996
sI996
VHaloOnline
p997
sI997
VHaloPlayers
p998
sI998
VHaloStory
p999
sI999
VHamilton
p1000
sI1000
VHammers
p1001
sI1001
VHammocks
p1002
sI1002
VHandwriting
p1003
sI1003
VHangoutFest
p1004
sI1004
VHannibalTV
p1005
sI1005
VHappyEmbarrassedGirls
p1006
sI1006
VHappyWars
p1007
sI1007
VHardcore
p1008
sI1008
VHardwareSwapUK
p1009
sI1009
VHarley
p1010
sI1010
VHarmontown
p1011
sI1011
VHaruhi
p1012
sI1012
VHatfilms
p1013
sI1013
VHawaii
p1014
sI1014
VHawken
p1015
sI1015
VHazardOps
p1016
sI1016
VHealth
p1017
sI1017
VHealthyFood
p1018
sI1018
VHearthArena
p1019
sI1019
VHearthDecklists
p1020
sI1020
VHeavymind
p1021
sI1021
VHedgehog
p1022
sI1022
VHeistTeams
p1023
sI1023
VHelicopters
p1024
sI1024
VHelldivers
p1025
sI1025
VHelloInternet
p1026
sI1026
VHelpMeFind
p1027
sI1027
VHermitCraft
p1028
sI1028
VHeroclix
p1029
sI1029
VHeroes_Charge
p1030
sI1030
VHeroesandGenerals
p1031
sI1031
VHeroesofNewerth
p1032
sI1032
VHighHeels
p1033
sI1033
VHighQualityGifs
p1034
sI1034
VHighschoolDxD
p1035
sI1035
VHipHopImages
p1036
sI1036
VHiphopcirclejerk
p1037
sI1037
VHistoricalWorldPowers
p1038
sI1038
VHistoryPorn
p1039
sI1039
VHistoryWhatIf
p1040
sI1040
VHogwartsRP
p1041
sI1041
VHoloLens
p1042
sI1042
VHomeDepot
p1043
sI1043
VHomeImprovement
p1044
sI1044
VHomeNetworking
p1045
sI1045
VHomebrewing
p1046
sI1046
VHomestarRunner
p1047
sI1047
VHomeworkHelp
p1048
sI1048
VHonda
p1049
sI1049
VHondaCB
p1050
sI1050
VHongKong
p1051
sI1051
VHookers
p1052
sI1052
VHorses
p1053
sI1053
VHotPeppers
p1054
sI1054
VHotWheels
p1055
sI1055
VHotchickswithtattoos
p1056
sI1056
VHotlineMiami
p1057
sI1057
VHotwife
p1058
sI1058
VHouse
p1059
sI1059
VHouseOfCards
p1060
sI1060
VHowToHack
p1061
sI1061
VHulugans
p1062
sI1062
VHumanFanClub
p1063
sI1063
VHumanPorn
p1064
sI1064
VHumansBeingBros
p1065
sI1065
VHunterXHunter
p1066
sI1066
VHunting
p1067
sI1067
VHuntsvilleAlabama
p1068
sI1068
VHuskers
p1069
sI1069
VHybridAnimals
p1070
sI1070
VHypothyroidism
p1071
sI1071
VHyundai
p1072
sI1072
VIASIP
p1073
sI1073
VIAmA
p1074
sI1074
VIAmAFiction
p1075
sI1075
VIAmA_ja
p1076
sI1076
VIBO
p1077
sI1077
VICanDrawThat
p1078
sI1078
VIDAP
p1079
sI1079
VIDontWorkHereLady
p1080
sI1080
VIGSRep
p1081
sI1081
VIMAMsales
p1082
sI1082
VINDYCAR
p1083
sI1083
VINGLIN
p1084
sI1084
VINTP
p1085
sI1085
VITCareerQuestions
p1086
sI1086
VITSAPRANK
p1087
sI1087
VIWantOut
p1088
sI1088
VIWantToLearn
p1089
sI1089
VIceland
p1090
sI1090
VIdg0d
p1091
sI1091
VIdiotsFightingThings
p1092
sI1092
VIfyouhadtopickone
p1093
sI1093
VIllustration
p1094
sI1094
VImGoingToHellForThis
p1095
sI1095
VImageStabilization
p1096
sI1096
VImages
p1097
sI1097
VImagesOfCities
p1098
sI1098
VImagesOfEarth
p1099
sI1099
VImagesOfHistory
p1100
sI1100
VImaginaryCharacters
p1101
sI1101
VImaginaryLandscapes
p1102
sI1102
VImaginaryMindscapes
p1103
sI1103
VImaginaryMonsters
p1104
sI1104
VImaginaryTurtleWorlds
p1105
sI1105
VImaginaryWesteros
p1106
sI1106
VIncestPorn
p1107
sI1107
VIndiaInvestments
p1108
sI1108
VIndiana
p1109
sI1109
VIndiansGoneWild
p1110
sI1110
VIndieDev
p1111
sI1111
VIndieGaming
p1112
sI1112
VIndiemakeupandmore
p1113
sI1113
VIndyEleven
p1114
sI1114
VInfertilityBabies
p1115
sI1115
VInfertilitySucks
p1116
sI1116
VInfographics
p1117
sI1117
VInfrastructurePorn
p1118
sI1118
VIngress
p1119
sI1119
VInjusticeMobile
p1120
sI1120
VInsightfulQuestions
p1121
sI1121
VInstagram
p1122
sI1122
VInsurance
p1123
sI1123
VIntactivists
p1124
sI1124
VInteriorDesign
p1125
sI1125
VInternetIsBeautiful
p1126
sI1126
VInvites
p1127
sI1127
VIowa
p1128
sI1128
VIronThronePowers
p1129
sI1129
VIronThroneRP
p1130
sI1130
VIsItBullshit
p1131
sI1131
VIsrael
p1132
sI1132
VJRPG
p1133
sI1133
VJUSTNOMIL
p1134
sI1134
VJaguars
p1135
sI1135
VJamesBond
p1136
sI1136
VJapanTravel
p1137
sI1137
VJapanesePorn2
p1138
sI1138
VJavDownloadCenter
p1139
sI1139
VJawbone
p1140
sI1140
VJazz
p1141
sI1141
VJeep
p1142
sI1142
VJeopardy
p1143
sI1143
VJessicaNigri
p1144
sI1144
VJobs4Bitcoins
p1145
sI1145
VJoeRogan
p1146
sI1146
VJokes
p1147
sI1147
VJonTron
p1148
sI1148
VJournalism
p1149
sI1149
VJudaism
p1150
sI1150
VJurassicPark
p1151
sI1151
VJustUnsubbed
p1152
sI1152
VJusticePorn
p1153
sI1153
VJusticeServed
p1154
sI1154
VJustrolledintotheshop
p1155
sI1155
VJuve
p1156
sI1156
VKCRoyals
p1157
sI1157
VKDRAMA
p1158
sI1158
VKIKSnaps
p1159
sI1159
VKamenRider
p1160
sI1160
VKanMusu
p1161
sI1161
VKansasCityChiefs
p1162
sI1162
VKanye
p1163
sI1163
VKappa
p1164
sI1164
VKarmaConspiracy
p1165
sI1165
VKarmaCourt
p1166
sI1166
VKayaking
p1167
sI1167
VKenM
p1168
sI1168
VKendama
p1169
sI1169
VKentucky
p1170
sI1170
VKerbalAcademy
p1171
sI1171
VKerbalSpaceProgram
p1172
sI1172
VKiAChatroom
p1173
sI1173
VKikpals
p1174
sI1174
VKillLaKill
p1175
sI1175
VKingOfTheHill
p1176
sI1176
VKingdomHearts
p1177
sI1177
VKingdoms
p1178
sI1178
VKingkillerChronicle
p1179
sI1179
VKingstonOntario
p1180
sI1180
VKitSwap
p1181
sI1181
VKitchenConfidential
p1182
sI1182
VKnife_Swap
p1183
sI1183
VKnightsofthebutton
p1184
sI1184
VKnoxville
p1185
sI1185
VKorean
p1186
sI1186
VKorosensei
p1187
sI1187
VKos
p1188
sI1188
VKotakuInAction
p1189
sI1189
VKoyoteelaughter
p1190
sI1190
VKratomKorner
p1191
sI1191
VKuwait
p1192
sI1192
VLAClippers
p1193
sI1193
VLAGalaxy
p1194
sI1194
VLARP
p1195
sI1195
VLAlist
p1196
sI1196
VLGBTeens
p1197
sI1197
VLGBTeensGoneMild
p1198
sI1198
VLGG3
p1199
sI1199
VLOLDyrus
p1200
sI1200
VLSAT
p1201
sI1201
VLSD
p1202
sI1202
VLV426
p1203
sI1203
VLaTeX
p1204
sI1204
VLabiaGW
p1205
sI1205
VLabourUK
p1206
sI1206
VLadyBoners
p1207
sI1207
VLadybonersgonecuddly
p1208
sI1208
VLandRover
p1209
sI1209
VLandlord
p1210
sI1210
VLasVegas
p1211
sI1211
VLastManonEarthTV
p1212
sI1212
VLatvianJokes
p1213
sI1213
VLawSchool
p1214
sI1214
VLawrence
p1215
sI1215
VLeagueConnect
p1216
sI1216
VLeagueOfMemes
p1217
sI1217
VLeagueofLegendsMeta
p1218
sI1218
VLearnJapanese
p1219
sI1219
VLearnUselessTalents
p1220
sI1220
VLeathercraft
p1221
sI1221
VLeeds
p1222
sI1222
VLeedsUnited
p1223
sI1223
VLegalAdviceUK
p1224
sI1224
VLegalTeens
p1225
sI1225
VLegendsOfTomorrow
p1226
sI1226
VLegionOfSkanks
p1227
sI1227
VLessCredibleDefence
p1228
sI1228
VLetsChat
p1229
sI1229
VLetsNotMeet
p1230
sI1230
VLetsPlayCritiques
p1231
sI1231
VLetsTalkMusic
p1232
sI1232
VLexus
p1233
sI1233
VLiaMarieJohnson
p1234
sI1234
VLibDem
p1235
sI1235
VLiberal
p1236
sI1236
VLibertarian
p1237
sI1237
VLibraries
p1238
sI1238
VLifeAfterNarcissism
p1239
sI1239
VLifeProTips
p1240
sI1240
VLifeWithIgor
p1241
sI1241
VLigaMX
p1242
sI1242
VLightNovels
p1243
sI1243
VLightbulb
p1244
sI1244
VLineRangers
p1245
sI1245
VLinuxActionShow
p1246
sI1246
VLipsThatGrip
p1247
sI1247
VLiveFromNewYork
p1248
sI1248
VLiverpool
p1249
sI1249
VLiverpoolFC
p1250
sI1250
VLivestreamFails
p1251
sI1251
VLoLChampConcepts
p1252
sI1252
VLoLFanArt
p1253
sI1253
VLoLTwistedTreeline
p1254
sI1254
VLoLeventVoDs
p1255
sI1255
VLoMMarket
p1256
sI1256
VLogo_Critique
p1257
sI1257
VLolicons
p1258
sI1258
VLollapalooza
p1259
sI1259
VLondonSocialClub
p1260
sI1260
VLongDistance
p1261
sI1261
VLonghornNation
p1262
sI1262
VLordsOfMinecraft
p1263
sI1263
VLosAngeles
p1264
sI1264
VLouisiana
p1265
sI1265
VLouisville
p1266
sI1266
VLoveLive
p1267
sI1267
VLovecraft
p1268
sI1268
VLubbock
p1269
sI1269
VLucidDreaming
p1270
sI1270
VLuciusAA
p1271
sI1271
VLuna_Lovewell
p1272
sI1272
VLushCosmetics
p1273
sI1273
VLuthier
p1274
sI1274
VLyft
p1275
sI1275
VMAA
p1276
sI1276
VMBA
p1277
sI1277
VMBTIPlus
p1278
sI1278
VMCFC
p1279
sI1279
VMCPE
p1280
sI1280
VMCSPlaystation
p1281
sI1281
VMCSRep
p1282
sI1282
VMCSXbox
p1283
sI1283
VMDMA
p1284
sI1284
VMECoOp
p1285
sI1285
VMEOW_IRL
p1286
sI1286
VMGTOW
p1287
sI1287
VMH370
p1288
sI1288
VMHOC
p1289
sI1289
VMHOCEDM
p1290
sI1290
VMHOCPress
p1291
sI1291
VMHOCStrangersBar
p1292
sI1292
VMINI
p1293
sI1293
VMLBStreams
p1294
sI1294
VMLBTheShow
p1295
sI1295
VMLPCCG
p1296
sI1296
VMLPLounge
p1297
sI1297
VMLS
p1298
sI1298
VMLTP
p1299
sI1299
VMMA
p1300
sI1300
VMMFB
p1301
sI1301
VMMORPG
p1302
sI1302
VMST3K
p1303
sI1303
VMTB
p1304
sI1304
VMTGLegacy
p1305
sI1305
VMTGO
p1306
sI1306
VMUD
p1307
sI1307
VMURICA
p1308
sI1308
VMabinogi
p1309
sI1309
VMachineLearning
p1310
sI1310
VMachinePorn
p1311
sI1311
VMachinists
p1312
sI1312
VMadMax
p1313
sI1313
VMadden
p1314
sI1314
VMaddenMobileForums
p1315
sI1315
VMaddenUltimateTeam
p1316
sI1316
VMadeMeSmile
p1317
sI1317
VMadokaMagica
p1318
sI1318
VMagic
p1319
sI1319
VMagicdeckbuilding
p1320
sI1320
VMagnolia_Town
p1321
sI1321
VMaine
p1322
sI1322
VMakeNewFriendsHere
p1323
sI1323
VMakeupAddiction
p1324
sI1324
VMakeupAddicts
p1325
sI1325
VMakeupRehab
p1326
sI1326
VMalazan
p1327
sI1327
VMandelaEffect
p1328
sI1328
VManyATrueNerd
p1329
sI1329
VMapPorn
p1330
sI1330
VMaplestory
p1331
sI1331
VMarijuana
p1332
sI1332
VMariners
p1333
sI1333
VMarkMyWords
p1334
sI1334
VMarkiplier
p1335
sI1335
VMarriage
p1336
sI1336
VMarvel
p1337
sI1337
VMarvelPuzzleQuest
p1338
sI1338
VMassiveCock
p1339
sI1339
VMasterchefAU
p1340
sI1340
VMavericks
p1341
sI1341
VMaya
p1342
sI1342
VMcDonalds
p1343
sI1343
VMcat
p1344
sI1344
VMeStories
p1345
sI1345
VMealPrepSunday
p1346
sI1346
VMeanJokes
p1347
sI1347
VMechanicAdvice
p1348
sI1348
VMechanicalKeyboards
p1349
sI1349
VMeditation
p1350
sI1350
VMegaman
p1351
sI1351
VMegaten
p1352
sI1352
VMegturney
p1353
sI1353
VMensRights
p1354
sI1354
VMerylRearSolid
p1355
sI1355
VMetaSubredditDrama
p1356
sI1356
VMetal
p1357
sI1357
VMetalMemes
p1358
sI1358
VMetalcore
p1359
sI1359
VMetallica
p1360
sI1360
VMetroid
p1361
sI1361
VMiami
p1362
sI1362
VMiata
p1363
sI1363
VMichigan
p1364
sI1364
VMicrosoftBand
p1365
sI1365
VMid_Century
p1366
sI1366
VMigrantFleet
p1367
sI1367
VMilitary
p1368
sI1368
VMilitaryGfys
p1369
sI1369
VMilitaryPorn
p1370
sI1370
VMillerPlanetside
p1371
sI1371
VMindcrackDiscussion
p1372
sI1372
VMineGrumps
p1373
sI1373
VMinecraft
p1374
sI1374
VMinecraftOne
p1375
sI1375
VMiniswap
p1376
sI1376
VMinneapolis
p1377
sI1377
VMkeBucks
p1378
sI1378
VModelUSGov
p1379
sI1379
VModelUSGovPress
p1380
sI1380
VModerationLog
p1381
sI1381
VModernMagic
p1382
sI1382
VModern_Family
p1383
sI1383
VModestMouse
p1384
sI1384
VMommit
p1385
sI1385
VMonarchyOfEquestria
p1386
sI1386
VMonero
p1387
sI1387
VMonitors
p1388
sI1388
VMonsterGirl
p1389
sI1389
VMonsterHunter
p1390
sI1390
VMonsterStrike
p1391
sI1391
VMonstercat
p1392
sI1392
VMonstercatCringe
p1393
sI1393
VMontana
p1394
sI1394
VMorbidReality
p1395
sI1395
VMorrowind
p1396
sI1396
VMortalKombat
p1397
sI1397
VMortalKombatX
p1398
sI1398
VMosinNagant
p1399
sI1399
VMotoG
p1400
sI1400
VMotoUK
p1401
sI1401
VMotoX
p1402
sI1402
VMotocross
p1403
sI1403
VMotorsports_ja
p1404
sI1404
VMouseReview
p1405
sI1405
VMoviePosterPorn
p1406
sI1406
VMovieSuggestions
p1407
sI1407
VMoviesinthemaking
p1408
sI1408
VMtAugusta
p1409
sI1409
VMtF
p1410
sI1410
VMuayThai
p1411
sI1411
VMulticopter
p1412
sI1412
VMultipleSclerosis
p1413
sI1413
VMunich
p1414
sI1414
VMuse
p1415
sI1415
VMushroomGrowers
p1416
sI1416
VMusic
p1417
sI1417
VMusicVideos
p1418
sI1418
VMusicthemetime
p1419
sI1419
VMustang
p1420
sI1420
VMvC3
p1421
sI1421
VMyLittleSupportGroup
p1422
sI1422
VMyPeopleNeedMe
p1423
sI1423
VNASCAR
p1424
sI1424
VNASLSoccer
p1425
sI1425
VNBA2k
p1426
sI1426
VNBASpurs
p1427
sI1427
VNBA_Draft
p1428
sI1428
VNCSU
p1429
sI1429
VNFA
p1430
sI1430
VNFL_Draft
p1431
sI1431
VNHLHUT
p1432
sI1432
VNHLStreams
p1433
sI1433
VNLSSCircleJerk
p1434
sI1434
VNLTP
p1435
sI1435
VNNAFB
p1436
sI1436
VNOLAPelicans
p1437
sI1437
VNSBL
p1438
sI1438
VNSFWFunny
p1439
sI1439
VNSFWIAMA
p1440
sI1440
VNSFW_GIF
p1441
sI1441
VNSFW_HTML5
p1442
sI1442
VNSFWskype
p1443
sI1443
VNUFC
p1444
sI1444
VNYCC
p1445
sI1445
VNYCFC
p1446
sI1446
VNYCapartments
p1447
sI1447
VNYCbike
p1448
sI1448
VNYGiants
p1449
sI1449
VNYKnicks
p1450
sI1450
VNYYankees
p1451
sI1451
VNameThatSong
p1452
sI1452
VNanny
p1453
sI1453
VNarcissisticAbuse
p1454
sI1454
VNaruto
p1455
sI1455
VNationals
p1456
sI1456
VNatureGifs
p1457
sI1457
VNavyBlazer
p1458
sI1458
VNeedafriend
p1459
sI1459
VNegareddit
p1460
sI1460
VNeoFAG
p1461
sI1461
VNepal
p1462
sI1462
VNerf
p1463
sI1463
VNetflixBestOf
p1464
sI1464
VNetrunner
p1465
sI1465
VNeutralPolitics
p1466
sI1466
VNeverwinter
p1467
sI1467
VNewMarvelRp
p1468
sI1468
VNewOrleans
p1469
sI1469
VNewSkaters
p1470
sI1470
VNewTubers
p1471
sI1471
VNewYorkIslanders
p1472
sI1472
VNewYorkMets
p1473
sI1473
VNewsOfTheStupid
p1474
sI1474
VNewsOfTheWeird
p1475
sI1475
VNexus
p1476
sI1476
VNexus5
p1477
sI1477
VNexus7
p1478
sI1478
VNexus9
p1479
sI1479
VNexusNewbies
p1480
sI1480
VNikon
p1481
sI1481
VNirvana
p1482
sI1482
VNisekoi
p1483
sI1483
VNissan
p1484
sI1484
VNoContract
p1485
sI1485
VNoFap
p1486
sI1486
VNoFapChristians
p1487
sI1487
VNoFapWar
p1488
sI1488
VNoMansSkyTheGame
p1489
sI1489
VNoPoo
p1490
sI1490
VNoSleepOOC
p1491
sI1491
VNoStupidQuestions
p1492
sI1492
VNo_Cry_Challenge
p1493
sI1493
VNootropics
p1494
sI1494
VNorse
p1495
sI1495
VNorthCarolina
p1496
sI1496
VNorthKoreaNews
p1497
sI1497
VNorway
p1498
sI1498
VNostalriusBegins
p1499
sI1499
VNotTimAndEric
p1500
sI1500
VNuclearThrone
p1501
sI1501
VOCD
p1502
sI1502
VOCLions
p1503
sI1503
VOCPoetry
p1504
sI1504
VOFWGKTA
p1505
sI1505
VOLTP
p1506
sI1506
VOOTP
p1507
sI1507
VOSHA
p1508
sI1508
VOSU
p1509
sI1509
VOaklandAthletics
p1510
sI1510
VObscureMedia
p1511
sI1511
VOceanicTagPro
p1512
sI1512
VOctober2014kids
p1513
sI1513
VOhio
p1514
sI1514
VOkCupid
p1515
sI1515
VOldSchoolCool
p1516
sI1516
VOmaha
p1517
sI1517
VOmnipotent_League
p1518
sI1518
VOmniversePenitentiary
p1519
sI1519
VOnOff
p1520
sI1520
VOnceUponATime
p1521
sI1521
VOnePiece
p1522
sI1522
VOnePieceTC
p1523
sI1523
VOnePunchMan
p1524
sI1524
VOneWordAtATimeJokes
p1525
sI1525
VOneWordJokes
p1526
sI1526
VOneY
p1527
sI1527
VOneirosophy
p1528
sI1528
VOoer
p1529
sI1529
VOpTicGaming
p1530
sI1530
VOp_Jade_Helm_15
p1531
sI1531
VOpenPV
p1532
sI1532
VOperationTrebuchet
p1533
sI1533
VOpiatesRecovery
p1534
sI1534
VOppression
p1535
sI1535
VOreGairuSNAFU
p1536
sI1536
VOrlandoMagic
p1537
sI1537
VOrthodoxChristianity
p1538
sI1538
VOsuSkins
p1539
sI1539
VOttawaSenators
p1540
sI1540
VOutOfTheLoop
p1541
sI1541
VOutlander
p1542
sI1542
VOutlier
p1543
sI1543
VOutreachHPG
p1544
sI1544
VOverwatch
p1545
sI1545
VOzoneOfftopic
p1546
sI1546
VP90X
p1547
sI1547
VPAX
p1548
sI1548
VPCOS
p1549
sI1549
VPEDs
p1550
sI1550
VPFJerk
p1551
sI1551
VPFSENSE
p1552
sI1552
VPHP
p1553
sI1553
VPHPhelp
p1554
sI1554
VPJRP_Community
p1555
sI1555
VPKA
p1556
sI1556
VPKMNRedditLeague
p1557
sI1557
VPLC
p1558
sI1558
VPOLITIC
p1559
sI1559
VPOLIZZAONLINE
p1560
sI1560
VPORTUGALCARALHO
p1561
sI1561
VPPC
p1562
sI1562
VPPRP
p1563
sI1563
VPS2Cobalt
p1564
sI1564
VPS3
p1565
sI1565
VPS4
p1566
sI1566
VPS4Deals
p1567
sI1567
VPSNFriends
p1568
sI1568
VPSO2
p1569
sI1569
VPSP
p1570
sI1570
VPSYC2371
p1571
sI1571
VPadres
p1572
sI1572
VPaleo
p1573
sI1573
VPalestine
p1574
sI1574
VPandR
p1575
sI1575
VPandoranRedCross
p1576
sI1576
VPangeanPowers
p1577
sI1577
VPanicHistory
p1578
sI1578
VParahumans
p1579
sI1579
VParanormal
p1580
sI1580
VPareidolia
p1581
sI1581
VParenting
p1582
sI1582
VParkour
p1583
sI1583
VPartneredYoutube
p1584
sI1584
VPathfinder
p1585
sI1585
VPathfinder_RPG
p1586
sI1586
VPatriots
p1587
sI1587
VPauper
p1588
sI1588
VPaxPassExchange
p1589
sI1589
VPcMasterRaceBuilds
p1590
sI1590
VPeaceCorpsVolunteers
p1591
sI1591
VPegging
p1592
sI1592
VPen_Swap
p1593
sI1593
VPenmanshipPorn
p1594
sI1594
VPennStateUniversity
p1595
sI1595
VPennsylvania
p1596
sI1596
VPennyDreadful
p1597
sI1597
VPensacola
p1598
sI1598
VPeopleBeingJerks
p1599
sI1599
VPercyJacksonRP
p1600
sI1600
VPerfectTiming
p1601
sI1601
VPerfectfit
p1602
sI1602
VPermaculture
p1603
sI1603
VPersonOfInterest
p1604
sI1604
VPersonalFinanceCanada
p1605
sI1605
VPetiteGoneWild
p1606
sI1606
VPets
p1607
sI1607
VPhascinatingPhysics
p1608
sI1608
VPhilippines
p1609
sI1609
VPhillyUnion
p1610
sI1610
VPhillyriders
p1611
sI1611
VPhotoshopRequest
p1612
sI1612
VPhysics
p1613
sI1613
VPickAnAndroidForMe
p1614
sI1614
VPictureGame
p1615
sI1615
VPipeTobacco
p1616
sI1616
VPiracy
p1617
sI1617
VPiratedGTA
p1618
sI1618
VPitt
p1619
sI1619
VPixelArt
p1620
sI1620
VPixelDungeon
p1621
sI1621
VPizza
p1622
sI1622
VPlanetside
p1623
sI1623
VPlantedTank
p1624
sI1624
VPlantsVSZombies
p1625
sI1625
VPlayStationPlus
p1626
sI1626
VPlaydate
p1627
sI1627
VPleX
p1628
sI1628
VPloungeMafia
p1629
sI1629
VPlumbing
p1630
sI1630
VPmsforsale
p1631
sI1631
VPoetry
p1632
sI1632
VPointlessStories
p1633
sI1633
VPokemonForAll
p1634
sI1634
VPokemonInsurgence
p1635
sI1635
VPokemonPlaza
p1636
sI1636
VPokemonQRCodes
p1637
sI1637
VPokemonROMhacks
p1638
sI1638
VPokemonRumbleWorld
p1639
sI1639
VPokemonRumbleWorld3DS
p1640
sI1640
VPokemonShuffle
p1641
sI1641
VPokemonTurfWars
p1642
sI1642
VPokemonexchange
p1643
sI1643
VPokemongiveaway
p1644
sI1644
VPolandballart
p1645
sI1645
VPolishGauntlet
p1646
sI1646
VPoliticalDiscussion
p1647
sI1647
VPoliticalHumor
p1648
sI1648
VPolska
p1649
sI1649
VPopCornTime
p1650
sI1650
VPorsche
p1651
sI1651
VPortal
p1652
sI1652
VPortland
p1653
sI1653
VPostHardcore
p1654
sI1654
VPostWorldPowers
p1655
sI1655
VPotterPlayRP
p1656
sI1656
VPowerMetal
p1657
sI1657
VPowerShell
p1658
sI1658
VPredators
p1659
sI1659
VPreggoPorn
p1660
sI1660
VPrematurecelebration
p1661
sI1661
VPrettyGirls
p1662
sI1662
VPrettyGirlsUglyFaces
p1663
sI1663
VPrettyLittleLiars
p1664
sI1664
VPrintrBot
p1665
sI1665
VPrismata
p1666
sI1666
VPrivateFiction
p1667
sI1667
VProGolf
p1668
sI1668
VProRevenge
p1669
sI1669
VProgrammerHumor
p1670
sI1670
VProjectFi
p1671
sI1671
VProjectMilSim
p1672
sI1672
VProjectReality
p1673
sI1673
VProject_Ascension
p1674
sI1674
VPropagandaPosters
p1675
sI1675
VProtectAndServe
p1676
sI1676
VPsoriasis
p1677
sI1677
VPsychic
p1678
sI1678
VPsychonaut
p1679
sI1679
VPublicFreakout
p1680
sI1680
VPucaTrade
p1681
sI1681
VPuertoRico
p1682
sI1682
VPunny
p1683
sI1683
VPurdue
p1684
sI1684
VPure
p1685
sI1685
VPurplePillDebate
p1686
sI1686
VPussyPass
p1687
sI1687
VPuzzleAndDragons
p1688
sI1688
VPuzzleAndDragons_ja
p1689
sI1689
VPvZGardenWarfare
p1690
sI1690
VPyongyang
p1691
sI1691
VPython
p1692
sI1692
VQadiani
p1693
sI1693
VQuadcopter
p1694
sI1694
VQuakeLive
p1695
sI1695
VQuebec
p1696
sI1696
VQuotesPorn
p1697
sI1697
VRATS
p1698
sI1698
VRBA
p1699
sI1699
VRBI
p1700
sI1700
VRCSources
p1701
sI1701
VREDDITORSINRECOVERY
p1702
sI1702
VRMTK
p1703
sI1703
VROBLOXUnitedNations
p1704
sI1704
VROKCFIT
p1705
sI1705
VROTC
p1706
sI1706
VRPGMaker
p1707
sI1707
VRPGStuck
p1708
sI1708
VRPI
p1709
sI1709
VRTLSDR
p1710
sI1710
VRWBY
p1711
sI1711
VRWBYNSFW
p1712
sI1712
VRabbits
p1713
sI1713
VRadicalChristianity
p1714
sI1714
VRadiology
p1715
sI1715
VRainbow6
p1716
sI1716
VRainmeter
p1717
sI1717
VRandomActsOfBlowJob
p1718
sI1718
VRandomActsOfGaming
p1719
sI1719
VRandomActsOfMuffDive
p1720
sI1720
VRandomActsOfPizza
p1721
sI1721
VRandomActsOfPolish
p1722
sI1722
VRandomActsOfTf2
p1723
sI1723
VRandomActsofCards
p1724
sI1724
VRandomActsofMakeup
p1725
sI1725
VRandomKindness
p1726
sI1726
VRandom_Acts_Of_Amazon
p1727
sI1727
VRandom_Acts_Of_Pizza
p1728
sI1728
VRapWars
p1729
sI1729
VRatchetAndClank
p1730
sI1730
VRateMyMayor
p1731
sI1731
VRateMyNudeBody
p1732
sI1732
VRateme
p1733
sI1733
VRationalPsychonaut
p1734
sI1734
VRealEstate
p1735
sI1735
VRealGirls
p1736
sI1736
VReasonableFaith
p1737
sI1737
VRecordings
p1738
sI1738
VRecruitCS
p1739
sI1739
VRedHotChiliPeppers
p1740
sI1740
VRedLetterMedia
p1741
sI1741
VRedPillWomen
p1742
sI1742
VRedactedCharts
p1743
sI1743
VRedditBandits
p1744
sI1744
VRedditDads
p1745
sI1745
VRedditDayOf
p1746
sI1746
VRedditForGrownups
p1747
sI1747
VRedditLaqueristas
p1748
sI1748
VRedditMist
p1749
sI1749
VRedditTryHard
p1750
sI1750
VReds
p1751
sI1751
VRedskins
p1752
sI1752
VRedvsBlue
p1753
sI1753
VReefTank
p1754
sI1754
VReformed
p1755
sI1755
VRelayForReddit
p1756
sI1756
VReno
p1757
sI1757
VRepKickz
p1758
sI1758
VReprap
p1759
sI1759
VRepsneakers
p1760
sI1760
VRepublican
p1761
sI1761
VResearchMarkets
p1762
sI1762
VRetroFuturism
p1763
sI1763
VRetroPie
p1764
sI1764
VRhodeIsland
p1765
sI1765
VRift
p1766
sI1766
VRiftvielrpg
p1767
sI1767
VRimWorld
p1768
sI1768
VRiotFest
p1769
sI1769
VRiotFreeLoL
p1770
sI1770
VRoadcam
p1771
sI1771
VRobocraft
p1772
sI1772
VRochester
p1773
sI1773
VRockband
p1774
sI1774
VRocketLeague
p1775
sI1775
VRoku
p1776
sI1776
VRomania
p1777
sI1777
VRoninAtTheEdgeOfTime
p1778
sI1778
VRoomPorn
p1779
sI1779
VRotMG
p1780
sI1780
VRoversMorningGlory
p1781
sI1781
VRowing
p1782
sI1782
VRubyBarracks
p1783
sI1783
VRule34LoL
p1784
sI1784
VRunner5
p1785
sI1785
VRunnerHub
p1786
sI1786
VRunningCirclejerk
p1787
sI1787
VS2000
p1788
sI1788
VSBS
p1789
sI1789
VSBU
p1790
sI1790
VSCBuildIt
p1791
sI1791
VSCCM
p1792
sI1792
VSCP
p1793
sI1793
VSCREENPRINTING
p1794
sI1794
VSEO
p1795
sI1795
VSFGiants
p1796
sI1796
VSFM
p1797
sI1797
VSFTC
p1798
sI1798
VSIFTrades
p1799
sI1799
VSJEarthquakes
p1800
sI1800
VSJSU
p1801
sI1801
VSNSD
p1802
sI1802
VSQL
p1803
sI1803
VSQLServer
p1804
sI1804
VSRSDiscussion
p1805
sI1805
VSRSGaming
p1806
sI1806
VSRSsucks
p1807
sI1807
VSS13
p1808
sI1808
VSSBM
p1809
sI1809
VSSBPM
p1810
sI1810
VSTD
p1811
sI1811
VSVExchange
p1812
sI1812
VSVRiders
p1813
sI1813
VSWARJE
p1814
sI1814
VSWORDS
p1815
sI1815
VSacRepublicFC
p1816
sI1816
VSacramento
p1817
sI1817
VSaints
p1818
sI1818
VSaintsFC
p1819
sI1819
VSakuraGakuin
p1820
sI1820
VSaltLakeCity
p1821
sI1821
VSampleSize
p1822
sI1822
VSanJose
p1823
sI1823
VSanJoseSharks
p1824
sI1824
VSanctionedSuicide
p1825
sI1825
VSandersForPresident
p1826
sI1826
VSasquatch
p1827
sI1827
VSat
p1828
sI1828
VSavageGarden
p1829
sI1829
VSavant
p1830
sI1830
VSaxophonics
p1831
sI1831
VSburbRP
p1832
sI1832
VScams
p1833
sI1833
VScandal
p1834
sI1834
VScenesFromAHat
p1835
sI1835
VScholar
p1836
sI1836
VSchoolIdolFestival
p1837
sI1837
VScotch
p1838
sI1838
VScotchSwap
p1839
sI1839
VScotland
p1840
sI1840
VScottishFootball
p1841
sI1841
VScreenwriting
p1842
sI1842
VScrolls
p1843
sI1843
VScrubs
p1844
sI1844
VSeahawks
p1845
sI1845
VSeattle
p1846
sI1846
VSeiko
p1847
sI1847
VSelfDrivingCars
p1848
sI1848
VSelfSufficiency
p1849
sI1849
VSerendipity
p1850
sI1850
VSexToys
p1851
sI1851
VSexWithDogs
p1852
sI1852
VSexWorkers
p1853
sI1853
VSexsells
p1854
sI1854
VShadowBan
p1855
sI1855
VShadowBanned
p1856
sI1856
VShadowrun
p1857
sI1857
VSharedACTown
p1858
sI1858
VShave_Bazaar
p1859
sI1859
VSherlock
p1860
sI1860
VShingekiNoKyojin
p1861
sI1861
VShinyPokemon
p1862
sI1862
VShinyPorn
p1863
sI1863
VShitAmericansSay
p1864
sI1864
VShitGhaziSays
p1865
sI1865
VShitLiberalsSay
p1866
sI1866
VShitPoliticsSays
p1867
sI1867
VShitRConservativeSays
p1868
sI1868
VShitRedditSays
p1869
sI1869
VShitWehraboosSay
p1870
sI1870
VShitstatistssay
p1871
sI1871
VShittyLifeProTips
p1872
sI1872
VShittyMapPorn
p1873
sI1873
VShitty_Car_Mods
p1874
sI1874
VShoplifting
p1875
sI1875
VShotguns
p1876
sI1876
VShouldIbuythisgame
p1877
sI1877
VShowerthoughts
p1878
sI1878
VSideProject
p1879
sI1879
VSidehugs
p1880
sI1880
VSikh
p1881
sI1881
VSiliconValleyHBO
p1882
sI1882
VSilverbugs
p1883
sI1883
VSimCity
p1884
sI1884
VSimplePlanes
p1885
sI1885
VSimulated
p1886
sI1886
VSissies
p1887
sI1887
VSka
p1888
sI1888
VSketchDaily
p1889
sI1889
VSkincareAddiction
p1890
sI1890
VSkincareAddictionUK
p1891
sI1891
VSkincareAddicts
p1892
sI1892
VSkullgirls
p1893
sI1893
VSkyDiving
p1894
sI1894
VSkypePals
p1895
sI1895
VSkyremcoop
p1896
sI1896
VSkyrimPorn
p1897
sI1897
VSleepApnea
p1898
sI1898
VSleepycabin
p1899
sI1899
VSlipknot
p1900
sI1900
VSlyGifs
p1901
sI1901
VSmartphones
p1902
sI1902
VSmite
p1903
sI1903
VSmiteLFM
p1904
sI1904
VSmiteOceanic
p1905
sI1905
VSmiteTrades
p1906
sI1906
VSmiteXenia
p1907
sI1907
VSmogGB
p1908
sI1908
VSneakers
p1909
sI1909
VSneks
p1910
sI1910
VSnus
p1911
sI1911
VSoccerBetting
p1912
sI1912
VSocialEngineering
p1913
sI1913
VSocialFrance
p1914
sI1914
VSocialism_101
p1915
sI1915
VSolForge
p1916
sI1916
VSolidWorks
p1917
sI1917
VSolving_A858
p1918
sI1918
VSongwriters
p1919
sI1919
VSonicTheHedgehog
p1920
sI1920
VSonsofanarchy
p1921
sI1921
VSonyAlpha
p1922
sI1922
VSonyXperia
p1923
sI1923
VSoundersFC
p1924
sI1924
VSourceFed
p1925
sI1925
VSpaceBuckets
p1926
sI1926
VSpanish
p1927
sI1927
VSpiderman
p1928
sI1928
VSpokane
p1929
sI1929
VSpongebros
p1930
sI1930
VSportingKC
p1931
sI1931
VSprint
p1932
sI1932
VSprinting
p1933
sI1933
VSpyro
p1934
sI1934
VSquaredCircle
p1935
sI1935
VSquaredCirclejerk
p1936
sI1936
VStLouis
p1937
sI1937
VStLouisRams
p1938
sI1938
VStPetersburgFL
p1939
sI1939
VStackAdvice
p1940
sI1940
VStacked
p1941
sI1941
VStance
p1942
sI1942
VStandUpComedy
p1943
sI1943
VStandup
p1944
sI1944
VStaples
p1945
sI1945
VStarWars
p1946
sI1946
VStarWarsArmada
p1947
sI1947
VStarWarsBattlefront
p1948
sI1948
VStarWarsEU
p1949
sI1949
VStarWarsLeaks
p1950
sI1950
VStarcitizen_trades
p1951
sI1951
VStarcraftCirclejerk
p1952
sI1952
VStardustCrusaders
p1953
sI1953
VStargate
p1954
sI1954
VStartledCats
p1955
sI1955
VStateOfDecay
p1956
sI1956
VSteam
p1957
sI1957
VSteamBot
p1958
sI1958
VSteamGameSwap
p1959
sI1959
VSteamPunkPowers
p1960
sI1960
VSteroidsourcetalk
p1961
sI1961
VStims
p1962
sI1962
VStockMarket
p1963
sI1963
VStoicism
p1964
sI1964
VStonerEngineering
p1965
sI1965
VStonerPhilosophy
p1966
sI1966
VStonerProTips
p1967
sI1967
VStopGaming
p1968
sI1968
VStormfrontorSJW
p1969
sI1969
VStormlight_Archive
p1970
sI1970
VStreetFighter
p1971
sI1971
VStreetFights
p1972
sI1972
VStretched
p1973
sI1973
VStrikeWitches
p1974
sI1974
VStronglifts5x5
p1975
sI1975
VStrongman
p1976
sI1976
VStudentLoans
p1977
sI1977
VStudentNurse
p1978
sI1978
VStuff
p1979
sI1979
VStuffers
p1980
sI1980
VSubaruForester
p1981
sI1981
VSubredditDrama
p1982
sI1982
VSubredditDramaDrama
p1983
sI1983
VSufjan
p1984
sI1984
VSuggestALaptop
p1985
sI1985
VSuicideWatch
p1986
sI1986
VSuomi
p1987
sI1987
VSupernatural
p1988
sI1988
VSupernaturalTV
p1989
sI1989
VSupersRP
p1990
sI1990
VSupplements
p1991
sI1991
VSupraball
p1992
sI1992
VSurface
p1993
sI1993
VSurvival
p1994
sI1994
VSwagBucks
p1995
sI1995
VSweatyPalms
p1996
sI1996
VSwimming
p1997
sI1997
VSwingDancing
p1998
sI1998
VSwingers
p1999
sI1999
VSwitzerland
p2000
sI2000
VSyracuse
p2001
sI2001
VTACPodcast
p2002
sI2002
VTACSdiscussion
p2003
sI2003
VTBoIRule34
p2004
sI2004
VTEFL
p2005
sI2005
VTF2WeaponIdeas
p2006
sI2006
VTF2fashionadvice
p2007
sI2007
VTFABLinePorn
p2008
sI2008
VTForceNetwork
p2009
sI2009
VTMNT
p2010
sI2010
VTOR
p2011
sI2011
VTPPKappa
p2012
sI2012
VTTPloreplaycentral
p2013
sI2013
VTacoma
p2014
sI2014
VTagPro
p2015
sI2015
VTagProIRL
p2016
sI2016
VTagProTesting
p2017
sI2017
VTalesFromRetail
p2018
sI2018
VTalesFromTheCustomer
p2019
sI2019
VTalesFromTheFrontDesk
p2020
sI2020
VTalesFromThePharmacy
p2021
sI2021
VTalesFromThePizzaGuy
p2022
sI2022
VTalesFromYourServer
p2023
sI2023
VTalesofFatHate
p2024
sI2024
VTallahassee
p2025
sI2025
VTalonmains
p2026
sI2026
VTameImpala
p2027
sI2027
VTampaBayLightning
p2028
sI2028
VTankPorn
p2029
sI2029
VTapTapInfinity
p2030
sI2030
VTapTitans
p2031
sI2031
VTarget
p2032
sI2032
VTaylorSwift
p2033
sI2033
VTeachers
p2034
sI2034
VTeamItUp
p2035
sI2035
VTeamRedditTeams
p2036
sI2036
VTeamSolomid
p2037
sI2037
VTechno
p2038
sI2038
VTechnologyProTips
p2039
sI2039
VTeenMFA
p2040
sI2040
VTekken
p2041
sI2041
VTelegramStickersShare
p2042
sI2042
VTellMeAFact
p2043
sI2043
VTennesseetitans
p2044
sI2044
VTeraOnline
p2045
sI2045
VTerraBattle
p2046
sI2046
VTerraria
p2047
sI2047
VTestPackPleaseIgnore
p2048
sI2048
VTestosterone
p2049
sI2049
VTexans
p2050
sI2050
VTexasRangers
p2051
sI2051
VTgirls
p2052
sI2052
VThailand
p2053
sI2053
VThaumaturgy
p2054
sI2054
VThe100
p2055
sI2055
VTheAmazingRace
p2056
sI2056
VTheBarbarians
p2057
sI2057
VTheBlackList
p2058
sI2058
VTheBluePill
p2059
sI2059
VTheBrewery
p2060
sI2060
VTheCreatures
p2061
sI2061
VTheCube
p2062
sI2062
VTheDarkTower
p2063
sI2063
VTheDepthsBelow
p2064
sI2064
VTheDescendantsOfRome
p2065
sI2065
VTheExpanse
p2066
sI2066
VTheFacebookDelusion
p2067
sI2067
VTheFence
p2068
sI2068
VTheForest
p2069
sI2069
VTheGameOfThronesGame
p2070
sI2070
VTheGirlSurvivalGuide
p2071
sI2071
VTheInnBetween
p2072
sI2072
VTheKillers
p2073
sI2073
VTheLastAirbender
p2074
sI2074
VTheMassive
p2075
sI2075
VTheOriginals
p2076
sI2076
VThePopcornStand
p2077
sI2077
VTheRealmOfMianite
p2078
sI2078
VTheRealmsMC
p2079
sI2079
VTheRedLion
p2080
sI2080
VTheRedPill
p2081
sI2081
VTheRedditRebels
p2082
sI2082
VTheSecretWorld
p2083
sI2083
VTheSimpsons
p2084
sI2084
VTheStrokes
p2085
sI2085
VTheVampireDiaries
p2086
sI2086
VTheVeneration
p2087
sI2087
VTheWayWeWere
p2088
sI2088
VTheWeeknd
p2089
sI2089
VTheWire
p2090
sI2090
VThe_Crew
p2091
sI2091
VTheatre
p2092
sI2092
VThemepark
p2093
sI2093
VTheoryOfReddit
p2094
sI2094
VThetruthishere
p2095
sI2095
VThingsCutInHalfPorn
p2096
sI2096
VThisIsOurMusic
p2097
sI2097
VThriftStoreHauls
p2098
sI2098
VThrowers
p2099
sI2099
VThunder
p2100
sI2100
VTiADiscussion
p2101
sI2101
VTibiaMMO
p2102
sI2102
VTimAndEric
p2103
sI2103
VTinder
p2104
sI2104
VTinyHouses
p2105
sI2105
VTinyLeaders
p2106
sI2106
VTinyTits
p2107
sI2107
VTittyDrop
p2108
sI2108
VTokyo
p2109
sI2109
VTokyoGhoul
p2110
sI2110
VTomorrowWorld
p2111
sI2111
VTomorrowland
p2112
sI2112
VToolBand
p2113
sI2113
VTools
p2114
sI2114
VToonami
p2115
sI2115
VToontown
p2116
sI2116
VTopGear
p2117
sI2117
VTopMindsOfReddit
p2118
sI2118
VTopsAndBottoms
p2119
sI2119
VTorontobluejays
p2120
sI2120
VTotalDelve
p2121
sI2121
VTotalDramaRoleplay
p2122
sI2122
VTotalDramaRoleplay2
p2123
sI2123
VTotalDramaWerewolf
p2124
sI2124
VTotalReddit
p2125
sI2125
VTotallyStraight
p2126
sI2126
VTowerofGod
p2127
sI2127
VTownofSalemgame
p2128
sI2128
VToyota
p2129
sI2129
VToyotaTacoma
p2130
sI2130
VTrackdays
p2131
sI2131
VTradeOrGift
p2132
sI2132
VTrans_fags
p2133
sI2133
VTransmogrification
p2134
sI2134
VTreknobabble
p2135
sI2135
VTribes
p2136
sI2136
VTributeMe
p2137
sI2137
VTriumph
p2138
sI2138
VTrollXChromosomes
p2139
sI2139
VTrollXMoms
p2140
sI2140
VTrollYChromosome
p2141
sI2141
VTrophies
p2142
sI2142
VTrove
p2143
sI2143
VTroveCreations
p2144
sI2144
VTrucking
p2145
sI2145
VTrucks
p2146
sI2146
VTrueAnime
p2147
sI2147
VTrueAskReddit
p2148
sI2148
VTrueAtheism
p2149
sI2149
VTrueChristian
p2150
sI2150
VTrueDetective
p2151
sI2151
VTrueDoTA2
p2152
sI2152
VTrueDucati
p2153
sI2153
VTrueFilm
p2154
sI2154
VTrueOffMyChest
p2155
sI2155
VTrueReddit
p2156
sI2156
VTrueSTL
p2157
sI2157
VTruthOrDareMe
p2158
sI2158
VTryingForABaby
p2159
sI2159
VTsumTsum
p2160
sI2160
VTsundereSharks
p2161
sI2161
VTucson
p2162
sI2162
VTulpas
p2163
sI2163
VTumblrAtRest
p2164
sI2164
VTumblrInAction
p2165
sI2165
VTumblrPls
p2166
sI2166
VTurkey
p2167
sI2167
VTwinCities
p2168
sI2168
VTwitch
p2169
sI2169
VTwoBestFriendsPlay
p2170
sI2170
VTwoXChromosomes
p2171
sI2171
VTwoXSex
p2172
sI2172
VTwokinds
p2173
sI2173
VUBC
p2174
sI2174
VUBreddit
p2175
sI2175
VUCDavis
p2176
sI2176
VUCI
p2177
sI2177
VUCONN
p2178
sI2178
VUCSC
p2179
sI2179
VUCSD
p2180
sI2180
VUCSantaBarbara
p2181
sI2181
VUFOs
p2182
sI2182
VUGA
p2183
sI2183
VUHCMatches
p2184
sI2184
VUIUC
p2185
sI2185
VUKDota
p2186
sI2186
VUKPersonalFinance
p2187
sI2187
VUMD
p2188
sI2188
VUNBGBBIIVCHIDCTIICBG
p2189
sI2189
VUSContenders
p2190
sI2190
VUSMC
p2191
sI2191
VUSMCboot
p2192
sI2192
VUSMilitarySO
p2193
sI2193
VUTAustin
p2194
sI2194
VUWMadison
p2195
sI2195
VUbuntu
p2196
sI2196
VUkrainianConflict
p2197
sI2197
VUltralight
p2198
sI2198
VUnashamed
p2199
sI2199
VUnderwearGW
p2200
sI2200
VUnearthedArcana
p2201
sI2201
VUnexpected
p2202
sI2202
VUnexpectedThugLife
p2203
sI2203
VUnexplainedPhotos
p2204
sI2204
VUnitedColors
p2205
sI2205
VUnity2D
p2206
sI2206
VUnity3D
p2207
sI2207
VUniversityOfHouston
p2208
sI2208
VUnorthodog
p2209
sI2209
VUnresolvedMysteries
p2210
sI2210
VUnsentLetters
p2211
sI2211
VUntappd
p2212
sI2212
VUofT
p2213
sI2213
VUpliftingNews
p2214
sI2214
VUpvoted
p2215
sI2215
VUpvotedBecauseGirl
p2216
sI2216
VUsenetInvites
p2217
sI2217
VUtahJazz
p2218
sI2218
VUticaComets
p2219
sI2219
VVAC_Porn
p2220
sI2220
VVHS
p2221
sI2221
VVOCALOID_UTAU_jp
p2222
sI2222
VVPN
p2223
sI2223
VValhallaChallenge
p2224
sI2224
VVapePorn
p2225
sI2225
VVaping
p2226
sI2226
VVaping101
p2227
sI2227
VVaporwave
p2228
sI2228
VVeep
p2229
sI2229
VVelo
p2230
sI2230
VVentGrumps
p2231
sI2231
VVerdantFantasyRP
p2232
sI2232
VVerizonTradeIn
p2233
sI2233
VVeryExpensive
p2234
sI2234
VVeterans
p2235
sI2235
VVictoriaBC
p2236
sI2236
VVictorianWorldPowers
p2237
sI2237
VVideoEditing
p2238
sI2238
VVietNam
p2239
sI2239
VVindictus
p2240
sI2240
VVinylCollectors
p2241
sI2241
VVioletHand
p2242
sI2242
VVirginia
p2243
sI2243
VVirginiaTech
p2244
sI2244
VVirtualFreakout
p2245
sI2245
VVisitingIceland
p2246
sI2246
VVivillon
p2247
sI2247
VVocaloid
p2248
sI2248
VVoiceActing
p2249
sI2249
VVolkswagen
p2250
sI2250
VVolleyballGirls
p2251
sI2251
VVolvo
p2252
sI2252
VVore
p2253
sI2253
VWGU
p2254
sI2254
VWMMA
p2255
sI2255
VWTF
p2256
sI2256
VWWE
p2257
sI2257
VWWEGames
p2258
sI2258
VWWIIplanes
p2259
sI2259
VWahoosTipi
p2260
sI2260
VWakeUp_Taylor
p2261
sI2261
VWaltDisneyWorld
p2262
sI2262
VWarframe
p2263
sI2263
VWarhammer
p2264
sI2264
VWarhammer40k
p2265
sI2265
VWarhammerFantasy
p2266
sI2266
VWarmachine
p2267
sI2267
VWarshipPorn
p2268
sI2268
VWarthunder
p2269
sI2269
VWashington
p2270
sI2270
VWastedGifs
p2271
sI2271
VWastelandPowers
p2272
sI2272
VWatchItForThePlot
p2273
sI2273
VWatches
p2274
sI2274
VWatchexchange
p2275
sI2275
VWatercolor
p2276
sI2276
VWaxpen
p2277
sI2277
VWaywardPines
p2278
sI2278
VWeAllGoWild
p2279
sI2279
VWeAreTheMusicMakers
p2280
sI2280
VWeakpots
p2281
sI2281
VWebGames
p2282
sI2282
VWeddingPhotography
p2283
sI2283
VWeirdWheels
p2284
sI2284
VWeissSchwarz
p2285
sI2285
VWelding
p2286
sI2286
VWellington
p2287
sI2287
VWellthatsucks
p2288
sI2288
VWestVirginia
p2289
sI2289
VWet_Shavers
p2290
sI2290
VWhatcouldgowrong
p2291
sI2291
VWhatisthis
p2292
sI2292
VWhatsInThisThing
p2293
sI2293
VWhiskyporn
p2294
sI2294
VWhiteRights
p2295
sI2295
VWhiteWolfRPG
p2296
sI2296
VWicca
p2297
sI2297
VWiggleButts
p2298
sI2298
VWiiHacks
p2299
sI2299
VWildStar
p2300
sI2300
VWildernessBackpacking
p2301
sI2301
VWindows10
p2302
sI2302
VWindward
p2303
sI2303
VWinnipeg
p2304
sI2304
VWishlist
p2305
sI2305
VWoT
p2306
sI2306
VWonderTrade
p2307
sI2307
VWordpress
p2308
sI2308
VWorkOnline
p2309
sI2309
VWorldOfNintendo
p2310
sI2310
VWorldOfWarships
p2311
sI2311
VWorldSilverCoins
p2312
sI2312
VWorldofTanks
p2313
sI2313
VWorldofTanksXbox
p2314
sI2314
VWorldprompts
p2315
sI2315
VWouldYouFuckMyWife
p2316
sI2316
VWouldYouRather
p2317
sI2317
VWowThisSubExistsNSFW
p2318
sI2318
VWrangler
p2319
sI2319
VWrestleWithThePlot
p2320
sI2320
VWritingPrompts
p2321
sI2321
VXFiles
p2322
sI2322
VXMenRP
p2323
sI2323
VXTerra
p2324
sI2324
VXWingTMG
p2325
sI2325
VXcom
p2326
sI2326
VXenoblade_Chronicles
p2327
sI2327
VYAwriters
p2328
sI2328
VYGOBinders
p2329
sI2329
VYGOSales
p2330
sI2330
VYMS
p2331
sI2331
VYamakuHighSchool
p2332
sI2332
VYasoHigh
p2333
sI2333
VYayInternetLol
p2334
sI2334
VYemeniCrisis
p2335
sI2335
VYogscast
p2336
sI2336
VYookaLaylee
p2337
sI2337
VYouEnterADungeon
p2338
sI2338
VYouShouldKnow
p2339
sI2339
VYugioh101
p2340
sI2340
VZMR
p2341
sI2341
VZenHabits
p2342
sI2342
VZeroEscape
p2343
sI2343
VZomboy
p2344
sI2344
Vabcqwerty123
p2345
sI2345
Vaberoth
p2346
sI2346
Vableton
p2347
sI2347
Vabletonlive
p2348
sI2348
Vabv
p2349
sI2349
Vacecombat
p2350
sI2350
Vacne
p2351
sI2351
Vacrl
p2352
sI2352
Vacting
p2353
sI2353
Vactuallesbians
p2354
sI2354
Vactuary
p2355
sI2355
Vacturnips
p2356
sI2356
Vadderall
p2357
sI2357
Vadmincraft
p2358
sI2358
Vads
p2359
sI2359
Vadultery
p2360
sI2360
Vadventuretime
p2361
sI2361
Vadvertising
p2362
sI2362
Vafinil
p2363
sI2363
Vagainstmensrights
p2364
sI2364
Vagentcarter
p2365
sI2365
Vaggies
p2366
sI2366
Vahotalk
p2367
sI2367
Vaikido
p2368
sI2368
Vainbow
p2369
sI2369
Vaion
p2370
sI2370
Vairsoft
p2371
sI2371
Vairsoftmarket
p2372
sI2372
Vak47
p2373
sI2373
Vakron
p2374
sI2374
Valaska
p2375
sI2375
Valberta
p2376
sI2376
Valcohol
p2377
sI2377
Valcoholism
p2378
sI2378
Valiens
p2379
sI2379
Vallthingsprotoss
p2380
sI2380
Vallthingszerg
p2381
sI2381
Valternativeart
p2382
sI2382
Valtgonewild
p2383
sI2383
Vamateur_boxing
p2384
sI2384
Vamateurradio
p2385
sI2385
Vamazon
p2386
sI2386
Vamazonecho
p2387
sI2387
Vamericandad
p2388
sI2388
Vamibeingdetained
p2389
sI2389
Vamiibo
p2390
sI2390
VamiiboSwap
p2391
sI2391
Vamiiboswapca
p2392
sI2392
Vamiugly
p2393
sI2393
Vanal
p2394
sI2394
Vanalog
p2395
sI2395
Vanchorage
p2396
sI2396
Vandroidapps
p2397
sI2397
Vandroidcirclejerk
p2398
sI2398
Vandroiddev
p2399
sI2399
Vandroidthemes
p2400
sI2400
Vangelsbaseball
p2401
sI2401
Vangularjs
p2402
sI2402
Vanimation
p2403
sI2403
Vanime
p2404
sI2404
Vanimegifs
p2405
sI2405
Vanimelegwear
p2406
sI2406
Vanimenocontext
p2407
sI2407
Vannakendrick
p2408
sI2408
Vannouncements
p2409
sI2409
Vanonymous
p2410
sI2410
Vanswers
p2411
sI2411
Vaoe2
p2412
sI2412
Vaphextwin
p2413
sI2413
Vapink
p2414
sI2414
Vapolloapp
p2415
sI2415
Vapotheoun
p2416
sI2416
Vapple
p2417
sI2417
Vapplehelp
p2418
sI2418
Vapril30th2015
p2419
sI2419
Vaquaponics
p2420
sI2420
Var15
p2421
sI2421
Varabs
p2422
sI2422
Vararagi
p2423
sI2423
Varcheage
p2424
sI2424
Varchitecture
p2425
sI2425
Varchlinux
p2426
sI2426
Varcticmonkeys
p2427
sI2427
Varduino
p2428
sI2428
Vargentina
p2429
sI2429
Varizona
p2430
sI2430
Varma
p2431
sI2431
Varmenia
p2432
sI2432
Varmy
p2433
sI2433
Varresteddevelopment
p2434
sI2434
Varrow
p2435
sI2435
Vartificial
p2436
sI2436
Vasatru
p2437
sI2437
Vasciiart_jp
p2438
sI2438
Vasexuality
p2439
sI2439
Vasheville
p2440
sI2440
Vasianamerican
p2441
sI2441
Vasianbeautyexchange
p2442
sI2442
Vask_transgender
p2443
sI2443
Vaskaconservative
p2444
sI2444
Vaskcarsales
p2445
sI2445
Vaskdrugs
p2446
sI2446
Vaskgaybros
p2447
sI2447
Vaskmath
p2448
sI2448
Vaskphilosophy
p2449
sI2449
Vaskportland
p2450
sI2450
Vaskscience
p2451
sI2451
Vaskseddit
p2452
sI2452
Vasktransgender
p2453
sI2453
Vasktrp
p2454
sI2454
Vaskwomenadvice
p2455
sI2455
Vasmr
p2456
sI2456
Vasoiaf
p2457
sI2457
Vasoiafcirclejerk
p2458
sI2458
Vaspergers
p2459
sI2459
Vass
p2460
sI2460
Vassassinscreed
p2461
sI2461
Vassettocorsa
p2462
sI2462
Vasshole
p2463
sI2463
Vasstastic
p2464
sI2464
Vastoria
p2465
sI2465
Vastrology
p2466
sI2466
Vastrophotography
p2467
sI2467
Vatheism
p2468
sI2468
Vatheistvids
p2469
sI2469
Vatlbeer
p2470
sI2470
Vatletico
p2471
sI2471
Vattackontitan
p2472
sI2472
Vauckland
p2473
sI2473
Vaudio
p2474
sI2474
Vaudiobooks
p2475
sI2475
Vaudioengineering
p2476
sI2476
Vaudiophile
p2477
sI2477
Vauslaw
p2478
sI2478
Vaussievapers
p2479
sI2479
Vaustinguns
p2480
sI2480
Vaustralia
p2481
sI2481
Vautism
p2482
sI2482
Vaves
p2483
sI2483
Vavfc
p2484
sI2484
Vaviation
p2485
sI2485
Vawakened
p2486
sI2486
Vawardtravel
p2487
sI2487
Vawesome
p2488
sI2488
Vawfuleyebrows
p2489
sI2489
Vaws
p2490
sI2490
Vaww
p2491
sI2491
Vawwnime
p2492
sI2492
Vawwnverts
p2493
sI2493
Vawwwtf
p2494
sI2494
Vayylmao
p2495
sI2495
Vazdiamondbacks
p2496
sI2496
Vbabyelephantgifs
p2497
sI2497
Vbabylon5
p2498
sI2498
Vbackpacking
p2499
sI2499
Vbaconreader
p2500
sI2500
Vbad_religion
p2501
sI2501
Vbadcode
p2502
sI2502
Vbadeconomics
p2503
sI2503
Vbadhistory
p2504
sI2504
Vbadlegaladvice
p2505
sI2505
Vbadlinguistics
p2506
sI2506
Vbadmathematics
p2507
sI2507
Vbadphilosophy
p2508
sI2508
Vbadpolitics
p2509
sI2509
Vbadroommates
p2510
sI2510
Vbadscience
p2511
sI2511
Vbadtattoos
p2512
sI2512
Vbaduk
p2513
sI2513
Vbakchodi
p2514
sI2514
Vbaldursgate
p2515
sI2515
Vbalisong
p2516
sI2516
Vbaltimore
p2517
sI2517
Vbangalore
p2518
sI2518
Vbanjo
p2519
sI2519
Vbanned
p2520
sI2520
Vbapcsalescanada
p2521
sI2521
Vbardmains
p2522
sI2522
Vbarista
p2523
sI2523
Vbarstoolsports
p2524
sI2524
Vbartenders
p2525
sI2525
Vbaseball
p2526
sI2526
Vbaseballcirclejerk
p2527
sI2527
Vbassfishing
p2528
sI2528
Vbassnectar
p2529
sI2529
Vbatman
p2530
sI2530
Vbatonrouge
p2531
sI2531
Vbattlecats
p2532
sI2532
Vbattlefield3
p2533
sI2533
Vbattlefield_4
p2534
sI2534
Vbattleparty
p2535
sI2535
Vbattlestations
p2536
sI2536
Vbattlewagon
p2537
sI2537
Vbayarea
p2538
sI2538
Vbbuk
p2539
sI2539
Vbdsm
p2540
sI2540
Vbeadsprites
p2541
sI2541
Vbeagle
p2542
sI2542
Vbeards
p2543
sI2543
Vbeatles
p2544
sI2544
Vbeauty
p2545
sI2545
Vbeer
p2546
sI2546
Vbeercirclejerk
p2547
sI2547
Vbeermoney
p2548
sI2548
Vbeerporn
p2549
sI2549
Vbeertrade
p2550
sI2550
Vbeerwithaview
p2551
sI2551
Vbeetle
p2552
sI2552
Vbehindthegifs
p2553
sI2553
Vbeijing
p2554
sI2554
Vbelgium
p2555
sI2555
Vbenfica
p2556
sI2556
Vbengals
p2557
sI2557
Vbenzodiazepines
p2558
sI2558
Vberkeley
p2559
sI2559
Vberlin
p2560
sI2560
Vbertstrips
p2561
sI2561
Vbestof
p2562
sI2562
Vbestoflegaladvice
p2563
sI2563
Vbestofnetflix
p2564
sI2564
Vbestofworldstar
p2565
sI2565
Vbeta
p2566
sI2566
Vbettafish
p2567
sI2567
VbetterCallSaul
p2568
sI2568
Vbetternews
p2569
sI2569
Vbeyondthebump
p2570
sI2570
Vbicycletouring
p2571
sI2571
Vbicycling
p2572
sI2572
Vbigasses
p2573
sI2573
Vbigbangtheory
p2574
sI2574
Vbigboobproblems
p2575
sI2575
Vbigdickproblems
p2576
sI2576
Vbigfoot
p2577
sI2577
Vbigonewild
p2578
sI2578
Vbigseo
p2579
sI2579
Vbikecommuting
p2580
sI2580
Vbikesgonewild
p2581
sI2581
Vbikewrench
p2582
sI2582
Vbilliards
p2583
sI2583
Vbimbofetish
p2584
sI2584
Vbindingofisaac
p2585
sI2585
Vbioinformatics
p2586
sI2586
Vbiology
p2587
sI2587
Vbioniclelego
p2588
sI2588
Vbipolar
p2589
sI2589
Vbirding
p2590
sI2590
Vbirdpics
p2591
sI2591
Vbirthcontrol
p2592
sI2592
Vbisco
p2593
sI2593
Vbisexual
p2594
sI2594
Vbitchimabus
p2595
sI2595
Vbjj
p2596
sI2596
Vblackberry
p2597
sI2597
Vblackbookgraffiti
p2598
sI2598
Vblackcoin
p2599
sI2599
Vblackdesertonline
p2600
sI2600
Vblackladies
p2601
sI2601
Vblackops2
p2602
sI2602
Vblackops3
p2603
sI2603
Vblackpeoplegifs
p2604
sI2604
Vbleach
p2605
sI2605
Vbleachshirts
p2606
sI2606
Vblender
p2607
sI2607
Vblog
p2608
sI2608
Vbloodborne
p2609
sI2609
Vbloomington
p2610
sI2610
Vbluesguitarist
p2611
sI2611
Vblunderyears
p2612
sI2612
Vbmx
p2613
sI2613
Vboardgames
p2614
sI2614
Vboating
p2615
sI2615
Vbobdylan
p2616
sI2616
Vbodybuilding
p2617
sI2617
Vbodymods
p2618
sI2618
Vbodyweightfitness
p2619
sI2619
Vboltedontits
p2620
sI2620
Vbonnaroo
p2621
sI2621
Vbonnarootickets
p2622
sI2622
Vboobs
p2623
sI2623
Vbooks
p2624
sI2624
Vbooksuggestions
p2625
sI2625
Vbootroom
p2626
sI2626
Vborrow
p2627
sI2627
Vborussiadortmund
p2628
sI2628
Vboston
p2629
sI2629
Vbostonceltics
p2630
sI2630
Vbotany
p2631
sI2631
Vbotsrights
p2632
sI2632
Vbotwatch
p2633
sI2633
Vboulder
p2634
sI2634
Vbouldering
p2635
sI2635
Vbourbon
p2636
sI2636
Vboxoffice
p2637
sI2637
Vbrandnew
p2638
sI2638
Vbrasil
p2639
sI2639
Vbraswap
p2640
sI2640
Vbravefrontier
p2641
sI2641
Vbreakingbad
p2642
sI2642
Vbreakingmom
p2643
sI2643
Vbreastfeeding
p2644
sI2644
Vbrighton
p2645
sI2645
Vbrisbane
p2646
sI2646
Vbristol
p2647
sI2647
Vbritishcolumbia
p2648
sI2648
Vbritishproblems
p2649
sI2649
Vbritpics
p2650
sI2650
Vbrokehugs
p2651
sI2651
Vbrokengifs
p2652
sI2652
Vbrooklynninenine
p2653
sI2653
Vbroslikeus
p2654
sI2654
Vbrownman
p2655
sI2655
Vbrum
p2656
sI2656
Vbuccaneers
p2657
sI2657
Vbuccos
p2658
sI2658
Vbudgetfood
p2659
sI2659
Vbuffalobills
p2660
sI2660
Vbuffy
p2661
sI2661
Vbuildapc
p2662
sI2662
Vbuildapcforme
p2663
sI2663
Vbuildapcsales
p2664
sI2664
Vbuildmeapc
p2665
sI2665
Vbulgaria
p2666
sI2666
Vburlington
p2667
sI2667
Vburstingout
p2668
sI2668
Vbusiness
p2669
sI2669
Vbuttonarena
p2670
sI2670
Vcablefail
p2671
sI2671
Vcableporn
p2672
sI2672
Vcactus
p2673
sI2673
Vcad
p2674
sI2674
Vcade
p2675
sI2675
Vcalibrations
p2676
sI2676
Vcalvinandhobbes
p2677
sI2677
Vcamaro
p2678
sI2678
Vcamping
p2679
sI2679
Vcanada
p2680
sI2680
Vcanadaguns
p2681
sI2681
Vcanberra
p2682
sI2682
Vcancer
p2683
sI2683
Vcanon
p2684
sI2684
Vcanucks
p2685
sI2685
Vcaps
p2686
sI2686
Vcarcrash
p2687
sI2687
Vcardfightvanguard
p2688
sI2688
Vcardistry
p2689
sI2689
Vcardsagainsthumanity
p2690
sI2690
Vcareerguidance
p2691
sI2691
Vcarporn
p2692
sI2692
Vcars
p2693
sI2693
Vcaseyneistat
p2694
sI2694
Vcassetteculture
p2695
sI2695
Vcastiron
p2696
sI2696
Vcastlevania
p2697
sI2697
Vcasualiama
p2698
sI2698
Vcataclysmdda
p2699
sI2699
Vcatbellies
p2700
sI2700
Vcatpictures
p2701
sI2701
Vcats
p2702
sI2702
Vccna
p2703
sI2703
Vcedarrapids
p2704
sI2704
Vcelebnsfw
p2705
sI2705
Vcfs
p2706
sI2706
Vchangemyview
p2707
sI2707
Vchangetip
p2708
sI2708
Vcharacterdrawing
p2709
sI2709
Vchastity
p2710
sI2710
Vcheatatmathhomework
p2711
sI2711
Vchelseafc
p2712
sI2712
Vchemhelp
p2713
sI2713
Vchemicalreactiongifs
p2714
sI2714
Vchemistry
p2715
sI2715
Vchess
p2716
sI2716
Vchesthairporn
p2717
sI2717
Vchicago
p2718
sI2718
Vchicagobulls
p2719
sI2719
Vchicagofire
p2720
sI2720
Vchildfree
p2721
sI2721
Vchile
p2722
sI2722
Vchiliadmystery
p2723
sI2723
Vchinchilla
p2724
sI2724
Vchiptunes
p2725
sI2725
Vchomsky
p2726
sI2726
Vchromanauts
p2727
sI2727
Vchrome
p2728
sI2728
Vchromeos
p2729
sI2729
Vchubby
p2730
sI2730
Vchuck
p2731
sI2731
Vchurning
p2732
sI2732
Vcider
p2733
sI2733
Vcigars
p2734
sI2734
Vcincinnati
p2735
sI2735
Vcinematography
p2736
sI2736
Vcirclebroke
p2737
sI2737
Vcirclebroke2
p2738
sI2738
Vcirclejerk
p2739
sI2739
Vcirclejerkaustralia
p2740
sI2740
Vcircojeca
p2741
sI2741
Vcirkeltrek
p2742
sI2742
Vciv
p2743
sI2743
VcivAIgames
p2744
sI2744
Vcivbattleroyale
p2745
sI2745
Vcivbeyondearth
p2746
sI2746
Vcivilengineering
p2747
sI2747
Vclassic4chan
p2748
sI2748
Vclassicalmusic
p2749
sI2749
Vclassiccars
p2750
sI2750
Vclevelandcavs
p2751
sI2751
Vclimate
p2752
sI2752
Vclimateskeptics
p2753
sI2753
Vclimbing
p2754
sI2754
Vclothdiaps
p2755
sI2755
Vcoaxedintoasnafu
p2756
sI2756
Vcocaine
p2757
sI2757
Vcock
p2758
sI2758
Vcocktails
p2759
sI2759
Vcoding
p2760
sI2760
Vcoins
p2761
sI2761
Vcollapse
p2762
sI2762
Vcollege
p2763
sI2763
Vcollegebaseball
p2764
sI2764
Vcollegehockey
p2765
sI2765
Vcollegesluts
p2766
sI2766
Vcolorizationrequests
p2767
sI2767
Vcombinedgifs
p2768
sI2768
Vcomedy
p2769
sI2769
Vcomicbookart
p2770
sI2770
Vcomicbookmovies
p2771
sI2771
Vcomicbooks
p2772
sI2772
Vcomiccodes
p2773
sI2773
Vcomiccon
p2774
sI2774
Vcomics
p2775
sI2775
Vcomicswap
p2776
sI2776
Vcommandline
p2777
sI2777
Vcommunism
p2778
sI2778
Vcommunism101
p2779
sI2779
Vcommunity
p2780
sI2780
VcompDota2
p2781
sI2781
Vcomposer
p2782
sI2782
Vcompsci
p2783
sI2783
Vcomputers
p2784
sI2784
Vcomputerscience
p2785
sI2785
Vcomputertechs
p2786
sI2786
Vconfession
p2787
sI2787
Vconfessions
p2788
sI2788
Vconlangs
p2789
sI2789
Vconservatives
p2790
sI2790
Vconsoledeals
p2791
sI2791
Vconsoles
p2792
sI2792
Vconspiracy
p2793
sI2793
Vconspiratard
p2794
sI2794
Vconsulting
p2795
sI2795
Vcoolguides
p2796
sI2796
Vcopenhagen
p2797
sI2797
Vcordcutters
p2798
sI2798
Vcorgi
p2799
sI2799
Vcosplay
p2800
sI2800
Vcosplayers
p2801
sI2801
Vcosplaygirls
p2802
sI2802
Vcounterstrike
p2803
sI2803
Vcounting
p2804
sI2804
Vcoversongs
p2805
sI2805
Vcowboybebop
p2806
sI2806
Vcowboys
p2807
sI2807
Vcoys
p2808
sI2808
Vcpp
p2809
sI2809
Vcpp_questions
p2810
sI2810
Vcrafts
p2811
sI2811
Vcraigslist
p2812
sI2812
Vcrappymusic
p2813
sI2813
Vcreepy
p2814
sI2814
VcreepyPMs
p2815
sI2815
Vcreepygaming
p2816
sI2816
Vcreepypasta
p2817
sI2817
Vcringe
p2818
sI2818
Vcringepics
p2819
sI2819
Vcripplingalcoholism
p2820
sI2820
Vcriterion
p2821
sI2821
Vcroatia
p2822
sI2822
Vcrochet
p2823
sI2823
Vcrossdressing
p2824
sI2824
Vcrossfit
p2825
sI2825
Vcrowfall
p2826
sI2826
Vcrusadersquest
p2827
sI2827
Vcrypto
p2828
sI2828
Vcryptoparadise
p2829
sI2829
Vcryptospread
p2830
sI2830
Vcs50
p2831
sI2831
Vcscareerquestions
p2832
sI2832
Vcsgobetting
p2833
sI2833
Vcsgolounge
p2834
sI2834
Vcsgomarketforum
p2835
sI2835
Vcsgoscores
p2836
sI2836
Vcsgotrade
p2837
sI2837
Vcsharp
p2838
sI2838
Vcss
p2839
sI2839
Vcsshelp
p2840
sI2840
Vctbeer
p2841
sI2841
Vcumsluts
p2842
sI2842
Vcurlyhair
p2843
sI2843
Vcurvy
p2844
sI2844
Vcustomhearthstone
p2845
sI2845
Vcustommagic
p2846
sI2846
Vcyanogenmod
p2847
sI2847
Vcycling
p2848
sI2848
Vcyclocross
p2849
sI2849
Vdaddit
p2850
sI2850
Vdadjokes
p2851
sI2851
Vdailyprogrammer
p2852
sI2852
Vdancegavindance
p2853
sI2853
Vdancing
p2854
sI2854
Vdanganronpa
p2855
sI2855
Vdankmemes
p2856
sI2856
Vdarkestdungeon
p2857
sI2857
Vdarksouls
p2858
sI2858
Vdataisbeautiful
p2859
sI2859
Vdataisugly
p2860
sI2860
Vdatascience
p2861
sI2861
Vdatfeel
p2862
sI2862
Vdatgap
p2863
sI2863
Vdating
p2864
sI2864
Vdating_advice
p2865
sI2865
Vdawngate
p2866
sI2866
Vdayton
p2867
sI2867
Vdayz
p2868
sI2868
Vdbxv
p2869
sI2869
Vdbz
p2870
sI2870
Vdcss
p2871
sI2871
Vde
p2872
sI2872
Vde_IAmA
p2873
sI2873
Vdeadmau5
p2874
sI2874
Vdeadpool
p2875
sI2875
Vdeaf
p2876
sI2876
Vdeathgrips
p2877
sI2877
Vdebian
p2878
sI2878
Vdeclutter
p2879
sI2879
Vdeephouse
p2880
sI2880
Vdeepthroat
p2881
sI2881
Vdeepweb
p2882
sI2882
Vdelusionalartists
p2883
sI2883
Vdemocrats
p2884
sI2884
Vdemonssouls
p2885
sI2885
Vdenvernuggets
p2886
sI2886
Vdepression
p2887
sI2887
Vdesign_critiques
p2888
sI2888
Vdesmoines
p2889
sI2889
Vdetroitlions
p2890
sI2890
Vdeutschland
p2891
sI2891
Vdevils
p2892
sI2892
Vdevops
p2893
sI2893
Vdfsports
p2894
sI2894
Vdiabetes
p2895
sI2895
Vdiablo3
p2896
sI2896
Vdicemasters
p2897
sI2897
Vdigimon
p2898
sI2898
Vdigimonrp
p2899
sI2899
Vdigitalnomad
p2900
sI2900
Vdirtgame
p2901
sI2901
Vdirtykikpals
p2902
sI2902
Vdirtypenpals
p2903
sI2903
Vdirtyr4r
p2904
sI2904
Vdirtysmall
p2905
sI2905
Vdisability
p2906
sI2906
Vdiscexchange
p2907
sI2907
Vdiscgolf
p2908
sI2908
Vdiscworld
p2909
sI2909
Vdishonored
p2910
sI2910
Vdisney
p2911
sI2911
Vdiyaudio
p2912
sI2912
Vdiypedals
p2913
sI2913
Vdjango
p2914
sI2914
Vdjiphantom
p2915
sI2915
Vdkcleague
p2916
sI2916
Vdndnext
p2917
sI2917
Vdoctorwho
p2918
sI2918
Vdogecoin
p2919
sI2919
Vdogemarket
p2920
sI2920
Vdogpictures
p2921
sI2921
Vdogs
p2922
sI2922
Vdonaldglover
p2923
sI2923
Vdontstarve
p2924
sI2924
Vdoodles
p2925
sI2925
Vdoommetal
p2926
sI2926
Vdoppelbangher
p2927
sI2927
Vdota2circlejerk
p2928
sI2928
Vdota2loungebets
p2929
sI2929
Vdota2pubs
p2930
sI2930
Vdotamasterrace
p2931
sI2931
Vdotnet
p2932
sI2932
Vdouglovesmovies
p2933
sI2933
Vdownloadcodes
p2934
sI2934
Vdragonage
p2935
sI2935
Vdragonblaze
p2936
sI2936
Vdragonrealms
p2937
sI2937
Vdrawing
p2938
sI2938
Vdrawme
p2939
sI2939
Vdreamcast
p2940
sI2940
Vdresdenfiles
p2941
sI2941
Vdroidturbo
p2942
sI2942
VdrugstoreMUA
p2943
sI2943
Vdrumcorps
p2944
sI2944
Vdrums
p2945
sI2945
Vdrunk
p2946
sI2946
Vdrunkencookery
p2947
sI2947
Vdrunkvapes
p2948
sI2948
Vdrupal
p2949
sI2949
Vdubai
p2950
sI2950
Vdubstep
p2951
sI2951
Vdune
p2952
sI2952
Vdungeondefenders
p2953
sI2953
Vduolingo
p2954
sI2954
Vdvdasa
p2955
sI2955
Vdvdcollection
p2956
sI2956
Vdwarffortress
p2957
sI2957
Vdwarvendistrict
p2958
sI2958
Vdxm
p2959
sI2959
Vdyinglight
p2960
sI2960
Vdykesgonemild
p2961
sI2961
Vdykesgonewild
p2962
sI2962
Vdynamo
p2963
sI2963
VeFreebies
p2964
sI2964
Veagles
p2965
sI2965
VearlyPowers
p2966
sI2966
Vearnhoney
p2967
sI2967
Vearthbound
p2968
sI2968
Veatsandwiches
p2969
sI2969
Vebikes
p2970
sI2970
Vecchi
p2971
sI2971
Vecig_vendors
p2972
sI2972
Vecigclassifieds
p2973
sI2973
Vecommerce
p2974
sI2974
Veconomy
p2975
sI2975
Vecr_eu
p2976
sI2976
Veczema
p2977
sI2977
Veditors
p2978
sI2978
Vedmprodcirclejerk
p2979
sI2979
Vedmproduction
p2980
sI2980
Veducation
p2981
sI2981
Veducationalgifs
p2982
sI2982
Velderscrollsonline
p2983
sI2983
Veldertrees
p2984
sI2984
Velectricdaisycarnival
p2985
sI2985
Velectricians
p2986
sI2986
Velectricvehicles
p2987
sI2987
Velectronic_cigarette
p2988
sI2988
Velectronicmusic
p2989
sI2989
Velectronics
p2990
sI2990
Velementaryos
p2991
sI2991
Veliteexplorers
p2992
sI2992
Velonmusk
p2993
sI2993
Velsamasterrace
p2994
sI2994
Vemacs
p2995
sI2995
Vems
p2996
sI2996
Vemulation
p2997
sI2997
Venergy
p2998
sI2998
Vengineering
p2999
sI2999
Ventertainment
p3000
sI3000
Ventj
p3001
sI3001
Ventourage
p3002
sI3002
Ventp
p3003
sI3003
Ventwives
p3004
sI3004
Venvironment
p3005
sI3005
Vericprydz
p3006
sI3006
Veroticauthors
p3007
sI3007
Vespnyankees
p3008
sI3008
Vesports
p3009
sI3009
Vestoration
p3010
sI3010
Veternalbattleground
p3011
sI3011
Vethereum
p3012
sI3012
Vethoslab
p3013
sI3013
Vetymology
p3014
sI3014
Veu4
p3015
sI3015
Veurope
p3016
sI3016
Veuropean
p3017
sI3017
Veurovision
p3018
sI3018
Vevangelion
p3019
sI3019
Vevedreddit
p3020
sI3020
Vevejobs
p3021
sI3021
Vevenewbies
p3022
sI3022
Veverquest
p3023
sI3023
Veverymanshouldknow
p3024
sI3024
Vevolution
p3025
sI3025
Vexcel
p3026
sI3026
Vexchangeserver
p3027
sI3027
Vexchristian
p3028
sI3028
Vexjw
p3029
sI3029
Vexmormon
p3030
sI3030
Vexmuslim
p3031
sI3031
Vexo
p3032
sI3032
Vexoticspotting
p3033
sI3033
VexplainlikeIAmA
p3034
sI3034
Vexplainlikeimfive
p3035
sI3035
Vfacebookwins
p3036
sI3036
Vfacepalm
p3037
sI3037
Vfactorio
p3038
sI3038
Vfairytail
p3039
sI3039
VfakeIDUK
p3040
sI3040
Vfakeid
p3041
sI3041
Vfalcons
p3042
sI3042
Vfallenlondon
p3043
sI3043
Vfalloutequestria
p3044
sI3044
Vfalloutlore
p3045
sI3045
Vfamilyguy
p3046
sI3046
Vfamilyguythegame
p3047
sI3047
Vfandomnatural
p3048
sI3048
Vfantasybaseball
p3049
sI3049
Vfantasyfootball
p3050
sI3050
Vfantasylife
p3051
sI3051
Vfantasywriters
p3052
sI3052
Vfarawaykingdom
p3053
sI3053
Vfarcry
p3054
sI3054
Vfargo
p3055
sI3055
Vfarming
p3056
sI3056
Vfastfood
p3057
sI3057
Vfasting
p3058
sI3058
Vfatestaynight
p3059
sI3059
Vfatlogic
p3060
sI3060
Vfatpeoplehate
p3061
sI3061
Vfatpeoplestories
p3062
sI3062
Vfayetteville
p3063
sI3063
Vfcbayern
p3064
sI3064
Vfeedthebeast
p3065
sI3065
Vfeedthebeastservers
p3066
sI3066
Vfeet
p3067
sI3067
Vfemalefashionadvice
p3068
sI3068
Vfemalehairadvice
p3069
sI3069
Vfeminisms
p3070
sI3070
Vferrets
p3071
sI3071
Vfestivals
p3072
sI3072
Vfffffffuuuuuuuuuuuu
p3073
sI3073
Vffxi
p3074
sI3074
Vffxiv
p3075
sI3075
Vfifaclubs
p3076
sI3076
Vfifthworldproblems
p3077
sI3077
Vfinalfantasyx
p3078
sI3078
Vfinance
p3079
sI3079
Vfinancialindependence
p3080
sI3080
Vfindaleague
p3081
sI3081
Vfindapath
p3082
sI3082
Vfindareddit
p3083
sI3083
Vfindfashion
p3084
sI3084
VfireTV
p3085
sI3085
Vfireemblem
p3086
sI3086
Vfireemblemcasual
p3087
sI3087
Vfirefly
p3088
sI3088
Vfirefox
p3089
sI3089
Vfirewater
p3090
sI3090
Vfirstimpression
p3091
sI3091
Vfirstworldanarchists
p3092
sI3092
Vfirstworldproblems
p3093
sI3093
Vfitbit
p3094
sI3094
Vfitgirls
p3095
sI3095
Vfitmeals
p3096
sI3096
Vfitness30plus
p3097
sI3097
Vfitnesscirclejerk
p3098
sI3098
Vfittings
p3099
sI3099
Vfivenightsatfangames
p3100
sI3100
Vfivenightsatfreddys
p3101
sI3101
Vfixit
p3102
sI3102
Vflashlight
p3103
sI3103
Vflexibility
p3104
sI3104
Vflicks
p3105
sI3105
Vflightsim
p3106
sI3106
Vflorida
p3107
sI3107
Vflyfishing
p3108
sI3108
Vflying
p3109
sI3109
Vfnafcringe
p3110
sI3110
Vfnv
p3111
sI3111
Vfood
p3112
sI3112
Vfoodhacks
p3113
sI3113
Vfootball
p3114
sI3114
Vfootballhighlights
p3115
sI3115
Vfootballmanagergames
p3116
sI3116
Vforaging
p3117
sI3117
Vfordranger
p3118
sI3118
Vforearmporn
p3119
sI3119
Vforeskin
p3120
sI3120
Vforever
p3121
sI3121
Vforhire
p3122
sI3122
Vformula1
p3123
sI3123
Vforsen
p3124
sI3124
Vforwardsfromgrandma
p3125
sI3125
Vforza
p3126
sI3126
Vfountainpens
p3127
sI3127
Vfoxes
p3128
sI3128
Vfpv
p3129
sI3129
Vfpvracing
p3130
sI3130
Vfragrance
p3131
sI3131
Vfragsplits
p3132
sI3132
Vfrance
p3133
sI3133
Vfreebies
p3134
sI3134
Vfreedesign
p3135
sI3135
Vfreedonuts
p3136
sI3136
Vfreefolk
p3137
sI3137
Vfreelance
p3138
sI3138
Vfreemasonry
p3139
sI3139
Vfresh_funny
p3140
sI3140
Vfresno
p3141
sI3141
Vfriendsafari
p3142
sI3142
Vfringefashion
p3143
sI3143
Vfrugalmalefashion
p3144
sI3144
Vft86
p3145
sI3145
Vftlgame
p3146
sI3146
Vftm
p3147
sI3147
Vfuckeatingdisorders
p3148
sI3148
Vfullmoviesonyoutube
p3149
sI3149
Vfunhaus
p3150
sI3150
Vfunkopop
p3151
sI3151
Vfunny
p3152
sI3152
Vfunrun
p3153
sI3153
Vfurry
p3154
sI3154
Vfutanari
p3155
sI3155
Vfuturama
p3156
sI3156
Vfuturebeatproducers
p3157
sI3157
Vfuturebeats
p3158
sI3158
Vg2agoldmine
p3159
sI3159
Vgadgets
p3160
sI3160
Vgainit
p3161
sI3161
Vgalatasaray
p3162
sI3162
Vgalaxynote4
p3163
sI3163
Vgalaxys4
p3164
sI3164
Vgalaxys5
p3165
sI3165
Vgallifrey
p3166
sI3166
VgameDevClassifieds
p3167
sI3167
Vgamecollecting
p3168
sI3168
Vgamedesign
p3169
sI3169
Vgamedev
p3170
sI3170
Vgamegrumps
p3171
sI3171
Vgamemaker
p3172
sI3172
Vgamemusic
p3173
sI3173
Vgameofthrones
p3174
sI3174
Vgamernews
p3175
sI3175
Vgameswap
p3176
sI3176
Vgametales
p3177
sI3177
Vgamindustri
p3178
sI3178
Vgaming
p3179
sI3179
Vgamingpc
p3180
sI3180
Vgamingsuggestions
p3181
sI3181
Vgardening
p3182
sI3182
Vgatech
p3183
sI3183
Vgats
p3184
sI3184
Vgay
p3185
sI3185
Vgaybears
p3186
sI3186
Vgaybros
p3187
sI3187
Vgaybrosgonemild
p3188
sI3188
Vgaymers
p3189
sI3189
Vgaymersgonewild
p3190
sI3190
Vgaypornhunters
p3191
sI3191
Vgeek
p3192
sI3192
Vgencon
p3193
sI3193
Vgenderqueer
p3194
sI3194
Vgentlemanboners
p3195
sI3195
Vgeocaching
p3196
sI3196
Vgeology
p3197
sI3197
Vgeologycareers
p3198
sI3198
Vgeopolitics
p3199
sI3199
Vgeraffesaresodumb
p3200
sI3200
Vgermanshepherds
p3201
sI3201
Vgermany
p3202
sI3202
Vgetdisciplined
p3203
sI3203
Vghettoglamourshots
p3204
sI3204
Vghibli
p3205
sI3205
Vgiantbomb
p3206
sI3206
Vgif
p3207
sI3207
Vgifs
p3208
sI3208
Vgifsgonewild
p3209
sI3209
Vgiftcardexchange
p3210
sI3210
Vgigantic
p3211
sI3211
Vginger
p3212
sI3212
Vgirlsinyogapants
p3213
sI3213
Vgis
p3214
sI3214
Vgit
p3215
sI3215
Vglasgow
p3216
sI3216
Vglassheads
p3217
sI3217
Vglitch_art
p3218
sI3218
Vgloving
p3219
sI3219
Vglutenfree
p3220
sI3220
Vgmod
p3221
sI3221
Vgog
p3222
sI3222
Vgolang
p3223
sI3223
Vgoldenretrievers
p3224
sI3224
Vgolf
p3225
sI3225
Vgonewild
p3226
sI3226
Vgonewildaudio
p3227
sI3227
Vgonewildcolor
p3228
sI3228
Vgonewildcouples
p3229
sI3229
Vgonewildcurvy
p3230
sI3230
Vgonewildstories
p3231
sI3231
Vgoodyearwelt
p3232
sI3232
Vgoogle
p3233
sI3233
Vgoogleplaydeals
p3234
sI3234
Vgopro
p3235
sI3235
Vgorillaz
p3236
sI3236
Vgoth
p3237
sI3237
Vgradadmissions
p3238
sI3238
Vgraffhelp
p3239
sI3239
Vgrammar
p3240
sI3240
Vgrandrapids
p3241
sI3241
Vgranturismo
p3242
sI3242
Vgraphic_design
p3243
sI3243
Vgratefuldead
p3244
sI3244
Vgratefuldoe
p3245
sI3245
Vgravityfalls
p3246
sI3246
VgreatNWside
p3247
sI3247
Vgreece
p3248
sI3248
Vgreenday
p3249
sI3249
Vgreentext
p3250
sI3250
Vgreenville
p3251
sI3251
Vgreysanatomy
p3252
sI3252
Vgrilledcheese
p3253
sI3253
Vgrilling
p3254
sI3254
Vgrime
p3255
sI3255
Vgrimm
p3256
sI3256
Vgrool
p3257
sI3257
Vgrooveshark
p3258
sI3258
Vgta5
p3259
sI3259
Vgtaglitches
p3260
sI3260
Vgtaonline
p3261
sI3261
Vgtaonlinecrews
p3262
sI3262
Vgtavcustoms
p3263
sI3263
Vguineapigs
p3264
sI3264
Vguitarcirclejerk
p3265
sI3265
Vguitarlessons
p3266
sI3266
Vguitarpedals
p3267
sI3267
Vguitarporn
p3268
sI3268
Vguitars
p3269
sI3269
Vgulag
p3270
sI3270
Vgundeals
p3271
sI3271
Vgunpolitics
p3272
sI3272
Vguns
p3273
sI3273
Vgwcumsluts
p3274
sI3274
Vh1z1
p3275
sI3275
Vh3h3productions
p3276
sI3276
Vhackernews
p3277
sI3277
Vhacking
p3278
sI3278
Vhackintosh
p3279
sI3279
Vhalifax
p3280
sI3280
Vhalo
p3281
sI3281
Vhammer
p3282
sI3282
Vhammockcamping
p3283
sI3283
Vhampan
p3284
sI3284
Vhamsters
p3285
sI3285
Vhapas
p3286
sI3286
Vhappy
p3287
sI3287
Vhappycrowds
p3288
sI3288
Vhardbodies
p3289
sI3289
Vhardstyle
p3290
sI3290
Vhardware
p3291
sI3291
Vhardwareswap
p3292
sI3292
Vharrypotter
p3293
sI3293
Vharvestmoon
p3294
sI3294
Vhaskell
p3295
sI3295
Vhavoc_bot
p3296
sI3296
Vhawks
p3297
sI3297
Vhcfactions
p3298
sI3298
Vhcteams
p3299
sI3299
Vheadphones
p3300
sI3300
Vhearthstone
p3301
sI3301
Vheat
p3302
sI3302
Vhelp
p3303
sI3303
Vhentai
p3304
sI3304
Vheraldry
p3305
sI3305
Vheroesofthestorm
p3306
sI3306
Vherpetology
p3307
sI3307
Vhextcg
p3308
sI3308
Vhighdeas
p3309
sI3309
Vhiking
p3310
sI3310
Vhinduism
p3311
sI3311
Vhiphop101
p3312
sI3312
Vhiphopheads
p3313
sI3313
Vhistory
p3314
sI3314
Vhitbox
p3315
sI3315
Vhockey
p3316
sI3316
Vhockeygoalies
p3317
sI3317
Vhockeyjerseys
p3318
sI3318
Vhockeyplayers
p3319
sI3319
Vhockeyquestionmark
p3320
sI3320
Vhoggit
p3321
sI3321
Vholdmybeaker
p3322
sI3322
Vholdmybeer
p3323
sI3323
Vholdmyfries
p3324
sI3324
Vholdthemoan
p3325
sI3325
Vhomeautomation
p3326
sI3326
Vhomedefense
p3327
sI3327
Vhomegym
p3328
sI3328
Vhomelab
p3329
sI3329
Vhomemadexxx
p3330
sI3330
Vhomeowners
p3331
sI3331
Vhomestead
p3332
sI3332
Vhomestuck
p3333
sI3333
Vhometheater
p3334
sI3334
Vhookah
p3335
sI3335
Vhorror
p3336
sI3336
Vhorseracing
p3337
sI3337
Vhouston
p3338
sI3338
Vhoustonents
p3339
sI3339
Vhowardstern
p3340
sI3340
Vhowto
p3341
sI3341
Vhowtonotgiveafuck
p3342
sI3342
Vhowyoudoin
p3343
sI3343
Vhtc
p3344
sI3344
Vhtcone
p3345
sI3345
Vhtpc
p3346
sI3346
Vhubchargen
p3347
sI3347
Vhugeboobs
p3348
sI3348
Vhumblebrag
p3349
sI3349
Vhumor
p3350
sI3350
Vhungary
p3351
sI3351
Vhuntersbell
p3352
sI3352
Vhusky
p3353
sI3353
Vhypotheticalsituation
p3354
sI3354
ViOSProgramming
p3355
sI3355
ViOSthemes
p3356
sI3356
ViRacing
p3357
sI3357
ViWallpaper
p3358
sI3358
ViZombie
p3359
sI3359
Viamverysmart
p3360
sI3360
Vibs
p3361
sI3361
Videasfortheadmins
p3362
sI3362
Videntifythisfont
p3363
sI3363
Vidleraiders
p3364
sI3364
Vidol3
p3365
sI3365
Vifiwonthelottery
p3366
sI3366
Vifyoulikeblank
p3367
sI3367
Viiiiiiitttttttttttt
p3368
sI3368
Villegaltorrents
p3369
sI3369
Villusionporn
p3370
sI3370
Villustrator
p3371
sI3371
Vim14andthisisdeep
p3372
sI3372
Vimaginarymaps
p3373
sI3373
Vimmigration
p3374
sI3374
Vimprov
p3375
sI3375
VinFAMOUSRP
p3376
sI3376
Vincest
p3377
sI3377
Vincest_relationships
p3378
sI3378
Vincremental_games
p3379
sI3379
Vindia
p3380
sI3380
Vindianapolis
p3381
sI3381
Vindianews
p3382
sI3382
Vindianpeoplefacebook
p3383
sI3383
Vindie
p3384
sI3384
Vindiegames
p3385
sI3385
Vindiegameswap
p3386
sI3386
Vindieheads
p3387
sI3387
Vindonesia
p3388
sI3388
Vinfertility
p3389
sI3389
Vinfinitecrisis
p3390
sI3390
Vinfiniti
p3391
sI3391
Vinfj
p3392
sI3392
Vinfp
p3393
sI3393
Vinitium
p3394
sI3394
Vinnernetworking
p3395
sI3395
Vinsanity
p3396
sI3396
VinsideJorahshead
p3397
sI3397
Vinstant_regret
p3398
sI3398
Vinsurgency
p3399
sI3399
Vinterestingasfuck
p3400
sI3400
Vinternetparents
p3401
sI3401
Vinterstellar
p3402
sI3402
Vinthenews
p3403
sI3403
Vintj
p3404
sI3404
Vintrovert
p3405
sI3405
Vintrusivethoughts
p3406
sI3406
Vinvesting
p3407
sI3407
Vios
p3408
sI3408
Viosgaming
p3409
sI3409
Vipad
p3410
sI3410
Viphone
p3411
sI3411
Viran
p3412
sI3412
Vireland
p3413
sI3413
Vislam
p3414
sI3414
Visrconspiracyracist
p3415
sI3415
Vistp
p3416
sI3416
Vitaly
p3417
sI3417
Vitmejp
p3418
sI3418
Vitookapicture
p3419
sI3419
Vitsaunixsystem
p3420
sI3420
Vjacksonville
p3421
sI3421
Vjailbreak
p3422
sI3422
Vjakeandamir
p3423
sI3423
VjanusVR
p3424
sI3424
Vjapan
p3425
sI3425
Vjapan_anime
p3426
sI3426
Vjapancirclejerk
p3427
sI3427
Vjapanlife
p3428
sI3428
Vjava
p3429
sI3429
Vjavahelp
p3430
sI3430
Vjavascript
p3431
sI3431
Vjeddit
p3432
sI3432
Vjerktalkdiamond
p3433
sI3433
Vjerseycity
p3434
sI3434
Vjewelry
p3435
sI3435
Vjobs
p3436
sI3436
Vjobuds
p3437
sI3437
Vjoerogan2
p3438
sI3438
Vjoinsquad
p3439
sI3439
Vjudo
p3440
sI3440
Vjuggling
p3441
sI3441
Vjuicyasians
p3442
sI3442
Vjustneckbeardthings
p3443
sI3443
Vk_Conversations
p3444
sI3444
Vkahootcrashing
p3445
sI3445
Vkancolle
p3446
sI3446
Vkancolle_ja
p3447
sI3447
Vkansas
p3448
sI3448
Vkansascity
p3449
sI3449
Vkatawashoujo
p3450
sI3450
Vkayakfishing
p3451
sI3451
Vketo
p3452
sI3452
Vketogains
p3453
sI3453
Vketorecipes
p3454
sI3454
Vketoscience
p3455
sI3455
Vkettlebell
p3456
sI3456
Vkickstarter
p3457
sI3457
Vkillerinstinct
p3458
sI3458
Vkillingfloor
p3459
sI3459
Vkillthosewhodisagree
p3460
sI3460
Vkindafunny
p3461
sI3461
Vkindle
p3462
sI3462
Vkings
p3463
sI3463
Vkinksters_gone_wild
p3464
sI3464
Vkitchener
p3465
sI3465
Vkittensgame
p3466
sI3466
Vklr650
p3467
sI3467
Vknifeclub
p3468
sI3468
Vknitting
p3469
sI3469
Vknives
p3470
sI3470
Vkodi
p3471
sI3471
Vkohi
p3472
sI3472
Vkol
p3473
sI3473
Vkorea
p3474
sI3474
Vkoreanvariety
p3475
sI3475
Vkorrasami
p3476
sI3476
Vkot
p3477
sI3477
Vkotor
p3478
sI3478
Vkpics
p3479
sI3479
Vkpop
p3480
sI3480
Vkpopfap
p3481
sI3481
Vkpopslumberparty
p3482
sI3482
Vkratom
p3483
sI3483
Vkreiswichs
p3484
sI3484
Vkungfury
p3485
sI3485
Vkurdistan
p3486
sI3486
Vkustom
p3487
sI3487
Vkzoo
p3488
sI3488
Vlabrador
p3489
sI3489
Vlabrats
p3490
sI3490
Vlacrosse
p3491
sI3491
Vladybonersgw
p3492
sI3492
Vlakers
p3493
sI3493
Vlanadelrey
p3494
sI3494
Vlandmark
p3495
sI3495
Vlandscaping
p3496
sI3496
Vlanguagelearning
p3497
sI3497
Vlapfoxtrax
p3498
sI3498
Vlaptops
p3499
sI3499
Vlaravel
p3500
sI3500
Vlastimages
p3501
sI3501
Vlastweektonight
p3502
sI3502
Vlatin
p3503
sI3503
Vlatterdaysaints
p3504
sI3504
Vlatvia
p3505
sI3505
Vlaw
p3506
sI3506
Vlawncare
p3507
sI3507
Vlawofattraction
p3508
sI3508
Vlawschooladmissions
p3509
sI3509
Vlbregs
p3510
sI3510
Vleafs
p3511
sI3511
Vleagueoflegends
p3512
sI3512
Vleakthreads
p3513
sI3513
Vleangains
p3514
sI3514
Vlearnart
p3515
sI3515
Vlearndota2
p3516
sI3516
Vlearnjava
p3517
sI3517
Vlearnjavascript
p3518
sI3518
Vlearnmath
p3519
sI3519
Vlearnprogramming
p3520
sI3520
Vlearnpython
p3521
sI3521
Vlearnspanish
p3522
sI3522
Vleaves
p3523
sI3523
Vlebanon
p3524
sI3524
Vlebowski
p3525
sI3525
Vlectures
p3526
sI3526
Vledootgeneration
p3527
sI3527
Vlegaladvice
p3528
sI3528
Vlego
p3529
sI3529
Vlegotrade
p3530
sI3530
Vleotards
p3531
sI3531
Vlesbians
p3532
sI3532
Vletsgofish
p3533
sI3533
Vletsplay
p3534
sI3534
Vlewronggeneration
p3535
sI3535
Vlexington
p3536
sI3536
Vlfg
p3537
sI3537
Vlgbt
p3538
sI3538
Vlgg2
p3539
sI3539
Vlgg4
p3540
sI3540
Vlibertarianmeme
p3541
sI3541
Vlifehacks
p3542
sI3542
Vlifeisstrange
p3543
sI3543
Vlifeofnorman
p3544
sI3544
Vlightingdesign
p3545
sI3545
Vlincoln
p3546
sI3546
Vlinguistics
p3547
sI3547
Vlinux
p3548
sI3548
Vlinux4noobs
p3549
sI3549
Vlinux_gaming
p3550
sI3550
Vlinuxadmin
p3551
sI3551
Vlinuxmasterrace
p3552
sI3552
Vlinuxmint
p3553
sI3553
Vlinuxquestions
p3554
sI3554
Vlistentothis
p3555
sI3555
Vlitecoin
p3556
sI3556
Vliterature
p3557
sI3557
Vlittlespace
p3558
sI3558
Vlivesound
p3559
sI3559
Vlockpicking
p3560
sI3560
Vlogicbox
p3561
sI3561
Vlogodesign
p3562
sI3562
Vlolgrindr
p3563
sI3563
Vlondon
p3564
sI3564
Vlondonontario
p3565
sI3565
Vlonely
p3566
sI3566
Vlongbeach
p3567
sI3567
Vlongboarding
p3568
sI3568
Vlongisland
p3569
sI3569
Vlongrange
p3570
sI3570
Vlongtail
p3571
sI3571
Vlookatmydog
p3572
sI3572
Vlootcrate
p3573
sI3573
Vloremasters
p3574
sI3574
Vlosangeleskings
p3575
sI3575
Vloseit
p3576
sI3576
Vlost
p3577
sI3577
Vlostgeneration
p3578
sI3578
Vlotr
p3579
sI3579
Vlotro
p3580
sI3580
Vlouie
p3581
sI3581
Vlow_poly
p3582
sI3582
Vlowendgaming
p3583
sI3583
Vlowlevelaware
p3584
sI3584
Vlrcast
p3585
sI3585
Vmac
p3586
sI3586
Vmacdemarco
p3587
sI3587
Vmacgaming
p3588
sI3588
Vmacsetups
p3589
sI3589
Vmaddenmobilebuysell
p3590
sI3590
Vmadisonwi
p3591
sI3591
Vmadmen
p3592
sI3592
VmagicTCG
p3593
sI3593
Vmagicka
p3594
sI3594
Vmagicskyfairy
p3595
sI3595
Vmakemychoice
p3596
sI3596
Vmakeupexchange
p3597
sI3597
Vmakeyourchoice
p3598
sI3598
Vmakinghiphop
p3599
sI3599
Vmalaysia
p3600
sI3600
Vmalefashion
p3601
sI3601
Vmalefashionadvice
p3602
sI3602
Vmalegrooming
p3603
sI3603
Vmalehairadvice
p3604
sI3604
Vmalelivingspace
p3605
sI3605
Vmallninjashit
p3606
sI3606
Vmanchester
p3607
sI3607
Vmanga
p3608
sI3608
Vmangonewild
p3609
sI3609
Vmapleleafs
p3610
sI3610
Vmarchingband
p3611
sI3611
Vmarijuanaenthusiasts
p3612
sI3612
Vmariokart
p3613
sI3613
Vmarketing
p3614
sI3614
Vmarriedredpill
p3615
sI3615
Vmartialarts
p3616
sI3616
Vmarvelheroes
p3617
sI3617
Vmarvelstudios
p3618
sI3618
Vmaryland
p3619
sI3619
Vmaschine
p3620
sI3620
Vmashups
p3621
sI3621
Vmassachusetts
p3622
sI3622
Vmasseffect
p3623
sI3623
Vmath
p3624
sI3624
Vmathriddles
p3625
sI3625
Vmathrock
p3626
sI3626
Vmatlab
p3627
sI3627
Vmaximumfun
p3628
sI3628
Vmazda
p3629
sI3629
Vmazda3
p3630
sI3630
Vmbti
p3631
sI3631
Vmcgill
p3632
sI3632
Vmcservers
p3633
sI3633
Vme_irl
p3634
sI3634
Vmead
p3635
sI3635
Vmechanical_gifs
p3636
sI3636
Vmechmarket
p3637
sI3637
Vmedical
p3638
sI3638
Vmedicalschool
p3639
sI3639
Vmedicine
p3640
sI3640
Vmedlabprofessionals
p3641
sI3641
Vmega64
p3642
sI3642
Vmegalinks
p3643
sI3643
Vmelbourne
p3644
sI3644
Vmemes
p3645
sI3645
Vmemphis
p3646
sI3646
Vmemphisgrizzlies
p3647
sI3647
Vmentalhealth
p3648
sI3648
Vmercedes_benz
p3649
sI3649
Vmetacanada
p3650
sI3650
Vmetaldetecting
p3651
sI3651
Vmetalgearsolid
p3652
sI3652
Vmetaljerk
p3653
sI3653
Vmetalworking
p3654
sI3654
VmewithoutYou
p3655
sI3655
Vmexico
p3656
sI3656
Vmflb
p3657
sI3657
Vmhguildquests
p3658
sI3658
Vmiamidolphins
p3659
sI3659
Vmiband
p3660
sI3660
Vmichaelbaygifs
p3661
sI3661
Vmicrogrowery
p3662
sI3662
Vmicrosoft
p3663
sI3663
Vmicrosoftsoftwareswap
p3664
sI3664
Vmigraine
p3665
sI3665
Vmildlyinfuriating
p3666
sI3666
Vmildlyinteresting
p3667
sI3667
Vmildlypenis
p3668
sI3668
Vmilf
p3669
sI3669
Vmillionairemakers
p3670
sI3670
Vmilliondollarextreme
p3671
sI3671
Vmilwaukee
p3672
sI3672
Vmindcrack
p3673
sI3673
Vmindcrackcirclejerk
p3674
sI3674
Vminecraftsuggestions
p3675
sI3675
Vminerapocalypse
p3676
sI3676
Vminimalism
p3677
sI3677
Vminipainting
p3678
sI3678
Vminnesota
p3679
sI3679
Vminnesotatwins
p3680
sI3680
Vminnesotaunited
p3681
sI3681
Vminnesotavikings
p3682
sI3682
Vmisc
p3683
sI3683
Vmisleadingthumbnails
p3684
sI3684
Vmisophonia
p3685
sI3685
Vmississauga
p3686
sI3686
Vmistyfront
p3687
sI3687
Vmitsubishi
p3688
sI3688
Vmkxmobile
p3689
sI3689
Vmlb
p3690
sI3690
Vmobilerepair
p3691
sI3691
Vmobileweb
p3692
sI3692
Vmodelmakers
p3693
sI3693
Vmodeltrains
p3694
sI3694
Vmodhelp
p3695
sI3695
Vmodnews
p3696
sI3696
Vmodpiracy
p3697
sI3697
Vmonsterhunterclan
p3698
sI3698
Vmontageparodies
p3699
sI3699
Vmontreal
p3700
sI3700
Vmoped
p3701
sI3701
Vmorbidquestions
p3702
sI3702
Vmormon
p3703
sI3703
Vmother4
p3704
sI3704
Vmoto360
p3705
sI3705
Vmotogp
p3706
sI3706
Vmotorcitykitties
p3707
sI3707
Vmotorcycles
p3708
sI3708
Vmotorcyclesroadtrip
p3709
sI3709
Vmountandblade
p3710
sI3710
Vmovies
p3711
sI3711
Vmoviescirclejerk
p3712
sI3712
Vmsp
p3713
sI3713
Vmtgaltered
p3714
sI3714
Vmtgcube
p3715
sI3715
Vmtgfinance
p3716
sI3716
Vmtgmarketwatch
p3717
sI3717
Vmturk
p3718
sI3718
Vmuacirclejerk
p3719
sI3719
Vmuacjdiscussion
p3720
sI3720
Vmueflair
p3721
sI3721
Vmulticopterbuilds
p3722
sI3722
Vmumbai
p3723
sI3723
Vmuseum
p3724
sI3724
Vmusictheory
p3725
sI3725
Vmuttrading
p3726
sI3726
Vmwo
p3727
sI3727
VmyNBA2KMobile
p3728
sI3728
Vmycleavage
p3729
sI3729
Vmycology
p3730
sI3730
Vmyfriendwantstoknow
p3731
sI3731
Vmylittleandysonic1
p3732
sI3732
Vmylittlepony
p3733
sI3733
Vmypartneristrans
p3734
sI3734
Vmysteryland
p3735
sI3735
Vn64
p3736
sI3736
Vnagasgura
p3737
sI3737
Vnameaserver
p3738
sI3738
Vnamenerds
p3739
sI3739
VnanJ
p3740
sI3740
Vnasa
p3741
sI3741
Vnashville
p3742
sI3742
Vnationalguard
p3743
sI3743
Vnattyorjuice
p3744
sI3744
Vnavy
p3745
sI3745
Vnavyseals
p3746
sI3746
Vnba
p3747
sI3747
Vnbacirclejerk
p3748
sI3748
Vnbastreams
p3749
sI3749
Vneckbeardstories
p3750
sI3750
Vnecrodancer
p3751
sI3751
Vneedabro
p3752
sI3752
Vneedadvice
p3753
sI3753
Vneedamod
p3754
sI3754
Vneedforspeed
p3755
sI3755
Vnekoatsume
p3756
sI3756
Vneopets
p3757
sI3757
Vnerdcubed
p3758
sI3758
Vnerdfighters
p3759
sI3759
Vnerdist
p3760
sI3760
Vnes
p3761
sI3761
Vnetflix
p3762
sI3762
Vnetsec
p3763
sI3763
Vnetworking
p3764
sI3764
Vneuro
p3765
sI3765
Vnewfoundland
p3766
sI3766
Vnewhampshire
p3767
sI3767
Vnewjersey
p3768
sI3768
Vnews
p3769
sI3769
Vnewsg
p3770
sI3770
Vnewsokur
p3771
sI3771
Vnewsokuvip
p3772
sI3772
Vnewtothenavy
p3773
sI3773
Vnewzealand
p3774
sI3774
Vnexus4
p3775
sI3775
Vnexus6
p3776
sI3776
Vnfl
p3777
sI3777
Vnflcirclejerk
p3778
sI3778
Vnhl
p3779
sI3779
Vniceguys
p3780
sI3780
Vnightvale
p3781
sI3781
Vnin
p3782
sI3782
Vnintendo
p3783
sI3783
Vnintendomusic
p3784
sI3784
Vnintype
p3785
sI3785
Vnl_Kripparrian
p3786
sI3786
Vno_sob_story
p3787
sI3787
Vnocontext
p3788
sI3788
Vnode
p3789
sI3789
Vnoisygifs
p3790
sI3790
Vnonmonogamy
p3791
sI3791
Vnononono
p3792
sI3792
Vnonononoyes
p3793
sI3793
Vnorfolk
p3794
sI3794
Vnorge
p3795
sI3795
Vnormalnudes
p3796
sI3796
Vnorthernireland
p3797
sI3797
Vnosgoth
p3798
sI3798
Vnosleep
p3799
sI3799
Vnostalgia
p3800
sI3800
Vnotebooks
p3801
sI3801
Vnotinteresting
p3802
sI3802
Vnottheonion
p3803
sI3803
Vnova
p3804
sI3804
Vnqmod
p3805
sI3805
Vnrl
p3806
sI3806
Vnsfw
p3807
sI3807
Vnsfw_gifs
p3808
sI3808
Vnsfwhardcore
p3809
sI3809
Vnsrarchive_jp
p3810
sI3810
Vnursing
p3811
sI3811
Vnutrition
p3812
sI3812
Vnvidia
p3813
sI3813
Vnyc
p3814
sI3814
Vnycmeetups
p3815
sI3815
Vnyjets
p3816
sI3816
Voakland
p3817
sI3817
Voaklandraiders
p3818
sI3818
Voasis
p3819
sI3819
Voblivion
p3820
sI3820
Voccult
p3821
sI3821
Voccupywallstreet
p3822
sI3822
Voculus
p3823
sI3823
Voculusnsfw
p3824
sI3824
Voddlysatisfying
p3825
sI3825
Vofcoursethatsathing
p3826
sI3826
Voffbeat
p3827
sI3827
Voffmychest
p3828
sI3828
Voffset
p3829
sI3829
Vokc
p3830
sI3830
Voklahoma
p3831
sI3831
Voldpeoplefacebook
p3832
sI3832
Volympia
p3833
sI3833
Voneplus
p3834
sI3834
Vonetruegod
p3835
sI3835
Vonewordeach
p3836
sI3836
Vonions
p3837
sI3837
Vontario
p3838
sI3838
Vopendirectories
p3839
sI3839
Vopensource
p3840
sI3840
Vopiaterollcall
p3841
sI3841
Vopiates
p3842
sI3842
Vopieandanthony
p3843
sI3843
Vopskins
p3844
sI3844
Voptions
p3845
sI3845
Voptometry
p3846
sI3846
Vorangecounty
p3847
sI3847
Vorangeisthenewblack
p3848
sI3848
Vorangered
p3849
sI3849
Voregon
p3850
sI3850
Vorioles
p3851
sI3851
Vorlando
p3852
sI3852
Vorphanblack
p3853
sI3853
Vosugame
p3854
sI3854
Vosx
p3855
sI3855
Vottawa
p3856
sI3856
Voutrun
p3857
sI3857
Voutside
p3858
sI3858
Voverclocking
p3859
sI3859
Voverlanding
p3860
sI3860
Vpacers
p3861
sI3861
Vpagan
p3862
sI3862
Vpaintball
p3863
sI3863
Vpainting
p3864
sI3864
Vpakistan
p3865
sI3865
Vpalegirls
p3866
sI3866
Vpanelshow
p3867
sI3867
Vpanthers
p3868
sI3868
Vpantsu
p3869
sI3869
Vpantyselling
p3870
sI3870
Vparadoxplaza
p3871
sI3871
Vparentsofmultiples
p3872
sI3872
Vparis
p3873
sI3873
Vparrots
p3874
sI3874
Vpathofexile
p3875
sI3875
Vpatientgamers
p3876
sI3876
Vpawg
p3877
sI3877
Vpaydaytheheist
p3878
sI3878
Vpaydaytheheistmods
p3879
sI3879
Vpcars
p3880
sI3880
Vpcgaming
p3881
sI3881
Vpcgamingtechsupport
p3882
sI3882
Vpcmasterrace
p3883
sI3883
Vpcmods
p3884
sI3884
Vpeacecorps
p3885
sI3885
Vpearljam
p3886
sI3886
Vpebble
p3887
sI3887
Vpeegonewild
p3888
sI3888
Vpeloton
p3889
sI3889
Vpenguins
p3890
sI3890
Vpenis
p3891
sI3891
Vpennystocks
p3892
sI3892
Vpenpals
p3893
sI3893
Vpentax
p3894
sI3894
Vperfectloops
p3895
sI3895
Vperktv
p3896
sI3896
Vpersonalfinance
p3897
sI3897
Vperth
p3898
sI3898
Vpettyrevenge
p3899
sI3899
Vpharmacy
p3900
sI3900
Vphiladelphia
p3901
sI3901
Vphillies
p3902
sI3902
Vphilosophy
p3903
sI3903
Vphish
p3904
sI3904
Vphoenix
p3905
sI3905
Vphotocritique
p3906
sI3906
Vphotography
p3907
sI3907
Vphotoplunder
p3908
sI3908
Vphotoshop
p3909
sI3909
Vphotoshopbattles
p3910
sI3910
Vpiano
p3911
sI3911
Vpic
p3912
sI3912
Vpicrequests
p3913
sI3913
Vpics
p3914
sI3914
Vpiercing
p3915
sI3915
Vpillowtalkaudio
p3916
sI3916
Vpinball
p3917
sI3917
Vpinkfloyd
p3918
sI3918
Vpitbulls
p3919
sI3919
Vpitchforkemporium
p3920
sI3920
Vpittsburgh
p3921
sI3921
Vpkmntcg
p3922
sI3922
Vpkmntcgcollections
p3923
sI3923
Vpkmntcgreferences
p3924
sI3924
Vpkmntcgtrades
p3925
sI3925
Vplanetaryannihilation
p3926
sI3926
Vplastidip
p3927
sI3927
Vplayark
p3928
sI3928
Vplaymindcrack
p3929
sI3929
Vplayrust
p3930
sI3930
Vplayrustpublic
p3931
sI3931
Vplaystation
p3932
sI3932
Vplexshares
p3933
sI3933
Vploompax
p3934
sI3934
Vplotholes
p3935
sI3935
Vploungeafterdark
p3936
sI3936
Vplugdj
p3937
sI3937
Vpodcasts
p3938
sI3938
Vpodemos
p3939
sI3939
Vpokemon
p3940
sI3940
Vpokemonbattles
p3941
sI3941
Vpokemonshowdown
p3942
sI3942
Vpokemontrades
p3943
sI3943
Vpokemonzetaomicron
p3944
sI3944
Vpoker
p3945
sI3945
Vpoland
p3946
sI3946
Vpolandball
p3947
sI3947
Vpoliticalpartypowers
p3948
sI3948
Vpolitics
p3949
sI3949
Vpolitota
p3950
sI3950
Vpolyamory
p3951
sI3951
Vpopping
p3952
sI3952
Vpoppunkers
p3953
sI3953
VpornID
p3954
sI3954
Vpornfree
p3955
sI3955
Vporninfifteenseconds
p3956
sI3956
Vpornvids
p3957
sI3957
Vporterrobinson
p3958
sI3958
Vportugal
p3959
sI3959
Vpostprocessing
p3960
sI3960
Vpostrock
p3961
sI3961
Vpowerlifting
p3962
sI3962
Vpowerrangers
p3963
sI3963
Vpredaddit
p3964
sI3964
Vpregnant
p3965
sI3965
Vpremed
p3966
sI3966
Vpreppers
p3967
sI3967
Vpresshearttocontinue
p3968
sI3968
VprintSF
p3969
sI3969
Vprisonarchitect
p3970
sI3970
Vprius
p3971
sI3971
Vprivacy
p3972
sI3972
Vproductivity
p3973
sI3973
Vprogmetal
p3974
sI3974
Vprogrammerchat
p3975
sI3975
Vprogramming
p3976
sI3976
Vprogrammingcirclejerk
p3977
sI3977
Vprogramminghorror
p3978
sI3978
Vprogressive
p3979
sI3979
Vprogresspics
p3980
sI3980
Vprogrockmusic
p3981
sI3981
Vprogun
p3982
sI3982
Vproject1999
p3983
sI3983
Vproject87
p3984
sI3984
Vprojectcar
p3985
sI3985
Vprojecteternity
p3986
sI3986
Vprojectzomboid
p3987
sI3987
Vprolife
p3988
sI3988
Vpromos
p3989
sI3989
Vprotectoreddit
p3990
sI3990
Vprovidence
p3991
sI3991
Vpsychedelicrock
p3992
sI3992
Vpsychology
p3993
sI3993
Vpsychotherapy
p3994
sI3994
Vptcgo
p3995
sI3995
Vptsd
p3996
sI3996
Vpugs
p3997
sI3997
Vpunchablefaces
p3998
sI3998
Vpunk
p3999
sI3999
Vpuns
p4000
sI4000
Vpuppy101
p4001
sI4001
Vpureasoiaf
p4002
sI4002
Vpussy
p4003
sI4003
Vpussypassdenied
p4004
sI4004
Vpuzzles
p4005
sI4005
Vpxifrm
p4006
sI4006
Vqotsa
p4007
sI4007
Vquake_jp
p4008
sI4008
Vqueensuniversity
p4009
sI4009
Vquestionablecontent
p4010
sI4010
Vquilting
p4011
sI4011
Vquittingkratom
p4012
sI4012
Vquityourbullshit
p4013
sI4013
Vquotes
p4014
sI4014
Vr4r
p4015
sI4015
Vr_sandbox_r
p4016
sI4016
Vracism
p4017
sI4017
Vradiocontrol
p4018
sI4018
Vradiohead
p4019
sI4019
Vrage
p4020
sI4020
Vraidsecrets
p4021
sI4021
Vrails
p4022
sI4022
Vraisedbynarcissists
p4023
sI4023
Vraiseyourdongers
p4024
sI4024
Vrakugakicho
p4025
sI4025
Vraleigh
p4026
sI4026
Vrally
p4027
sI4027
Vramen
p4028
sI4028
Vrandomactsofamazon
p4029
sI4029
Vrandomactsofcsgo
p4030
sI4030
Vrandomactsofdota2
p4031
sI4031
Vrandomsexiness
p4032
sI4032
Vrandomsuperpowers
p4033
sI4033
Vrandpaul
p4034
sI4034
Vrangers
p4035
sI4035
Vrant
p4036
sI4036
Vrap
p4037
sI4037
Vrapbattles
p4038
sI4038
Vrapbattlesbootleg
p4039
sI4039
Vraspberry_pi
p4040
sI4040
Vrational
p4041
sI4041
Vravens
p4042
sI4042
Vrawdenim
p4043
sI4043
Vrazer
p4044
sI4044
Vrbny
p4045
sI4045
Vrccars
p4046
sI4046
Vrct
p4047
sI4047
Vreactiongifs
p4048
sI4048
Vreadit
p4049
sI4049
Vrealasians
p4050
sI4050
Vrealdubstep
p4051
sI4051
Vreallifedoodles
p4052
sI4052
Vrealmadrid
p4053
sI4053
Vrealtech
p4054
sI4054
Vrearpussy
p4055
sI4055
Vreasoners
p4056
sI4056
Vrecipes
p4057
sI4057
Vrecordthis
p4058
sI4058
Vreddeadredemption
p4059
sI4059
Vreddevils
p4060
sI4060
Vredditblack
p4061
sI4061
Vredditcasual
p4062
sI4062
Vredditchi
p4063
sI4063
Vredditdev
p4064
sI4064
Vredditdota2league
p4065
sI4065
Vredditgetsdrawn
p4066
sI4066
Vredditisfun
p4067
sI4067
Vredditrequest
p4068
sI4068
Vredditsync
p4069
sI4069
Vredheads
p4070
sI4070
Vredorchestra
p4071
sI4071
Vredsox
p4072
sI4072
Vreflex
p4073
sI4073
Vregina
p4074
sI4074
Vreignofkingsgame
p4075
sI4075
Vrelationship_advice
p4076
sI4076
Vrelationships
p4077
sI4077
Vrelaxedpokemontrades
p4078
sI4078
Vreligion
p4079
sI4079
Vreloading
p4080
sI4080
Vreptiles
p4081
sI4081
Vrepublicwireless
p4082
sI4082
Vresearchchemicals
p4083
sI4083
Vresidentevil
p4084
sI4084
Vrespectthreads
p4085
sI4085
Vresumes
p4086
sI4086
Vretrobattlestations
p4087
sI4087
Vretrogameswap
p4088
sI4088
Vretrogaming
p4089
sI4089
Vrevenge
p4090
sI4090
Vrickandmorty
p4091
sI4091
Vrickygervais
p4092
sI4092
Vriddles
p4093
sI4093
Vripcity
p4094
sI4094
Vriskofrain
p4095
sI4095
Vrit
p4096
sI4096
Vroadtrip
p4097
sI4097
Vroasting
p4098
sI4098
Vroblox
p4099
sI4099
Vrobotics
p4100
sI4100
Vrocketbeans
p4101
sI4101
Vrockets
p4102
sI4102
Vrockhounds
p4103
sI4103
Vrocksmith
p4104
sI4104
Vroguelikedev
p4105
sI4105
Vroguelikes
p4106
sI4106
Vroleplayponies
p4107
sI4107
Vrollerblading
p4108
sI4108
Vrollercoasters
p4109
sI4109
Vrollerderby
p4110
sI4110
Vronandfez
p4111
sI4111
Vroosterteeth
p4112
sI4112
Vrotmgtradingpost
p4113
sI4113
Vrpdrcirclejerk
p4114
sI4114
Vrpg
p4115
sI4115
Vrpg_gamers
p4116
sI4116
Vruby
p4117
sI4117
Vrugbyunion
p4118
sI4118
Vrule34
p4119
sI4119
Vrunescape
p4120
sI4120
Vrunning
p4121
sI4121
Vrupaulsdragrace
p4122
sI4122
Vrush
p4123
sI4123
Vrussia
p4124
sI4124
Vrussian
p4125
sI4125
Vrust
p4126
sI4126
Vrustfactions
p4127
sI4127
Vrutgers
p4128
sI4128
Vrva
p4129
sI4129
VrwbyRP
p4130
sI4130
Vsaab
p4131
sI4131
Vsabres
p4132
sI4132
Vsadboys
p4133
sI4133
Vsailing
p4134
sI4134
Vsailormoon
p4135
sI4135
Vsales
p4136
sI4136
Vsamharris
p4137
sI4137
Vsamsung
p4138
sI4138
Vsanantonio
p4139
sI4139
Vsanantoniocirclejerk
p4140
sI4140
Vsandboxtest
p4141
sI4141
Vsandiego
p4142
sI4142
Vsanfrancisco
p4143
sI4143
Vsaplings
p4144
sI4144
Vsaskatoon
p4145
sI4145
Vsatanism
p4146
sI4146
Vsaudiarabia
p4147
sI4147
Vsavannah
p4148
sI4148
Vscala
p4149
sI4149
Vscamp
p4150
sI4150
Vschizophrenia
p4151
sI4151
Vscience
p4152
sI4152
Vsciencefiction
p4153
sI4153
Vscientology
p4154
sI4154
Vscifi
p4155
sI4155
Vscooters
p4156
sI4156
Vscreenshots
p4157
sI4157
Vscuba
p4158
sI4158
Vsecondlife
p4159
sI4159
Vsecretsanta
p4160
sI4160
Vsecurity
p4161
sI4161
Vsecurityguards
p4162
sI4162
Vseduction
p4163
sI4163
Vsee
p4164
sI4164
Vseedboxes
p4165
sI4165
Vseinfeld
p4166
sI4166
Vself
p4167
sI4167
Vselfharm
p4168
sI4168
Vselfharmpics
p4169
sI4169
Vselfimprovement
p4170
sI4170
Vselfpublish
p4171
sI4171
Vsensor
p4172
sI4172
Vserbia
p4173
sI4173
Vserialkillers
p4174
sI4174
Vserialpodcast
p4175
sI4175
Vsewing
p4176
sI4176
Vsex
p4177
sI4177
Vsgsflair
p4178
sI4178
Vshadowchargen
p4179
sI4179
Vshadownet
p4180
sI4180
Vshanghai
p4181
sI4181
Vsharepoint
p4182
sI4182
Vshiba
p4183
sI4183
Vshield
p4184
sI4184
Vshitladytrollx
p4185
sI4185
Vshitpost
p4186
sI4186
Vshittyadvice
p4187
sI4187
Vshittyadviceanimals
p4188
sI4188
Vshittyama
p4189
sI4189
Vshittyaskreddit
p4190
sI4190
Vshittyaskscience
p4191
sI4191
Vshittybattlestations
p4192
sI4192
Vshittyfoodporn
p4193
sI4193
Vshittyideas
p4194
sI4194
Vshittykickstarters
p4195
sI4195
Vshittyprogramming
p4196
sI4196
Vshittyreactiongifs
p4197
sI4197
Vshittyrobots
p4198
sI4198
Vshoegaze
p4199
sI4199
Vshort
p4200
sI4200
Vshorthairedhotties
p4201
sI4201
Vshortscarystories
p4202
sI4202
Vshowerbeer
p4203
sI4203
Vshroomers
p4204
sI4204
Vshrooms
p4205
sI4205
Vshutupandtakemymoney
p4206
sI4206
Vshutupandwrite
p4207
sI4207
Vsilenthill
p4208
sI4208
Vsimpleliving
p4209
sI4209
Vsimplerockets
p4210
sI4210
Vsimracing
p4211
sI4211
Vsimrally
p4212
sI4212
Vsingapore
p4213
sI4213
Vsinging
p4214
sI4214
Vsingularity
p4215
sI4215
Vsips
p4216
sI4216
Vsissyhypno
p4217
sI4217
Vsixers
p4218
sI4218
Vsixwordstories
p4219
sI4219
Vsjwhate
p4220
sI4220
Vskateboarding
p4221
sI4221
Vskeptic
p4222
sI4222
Vskiing
p4223
sI4223
Vskrillex
p4224
sI4224
Vskylanders
p4225
sI4225
Vskyrim
p4226
sI4226
Vskyrimmods
p4227
sI4227
Vskyrimrequiem
p4228
sI4228
Vslashdiablo
p4229
sI4229
Vslashdiabloevents
p4230
sI4230
Vslavelabour
p4231
sI4231
Vslingtv
p4232
sI4232
Vslowcooking
p4233
sI4233
Vslowpitch
p4234
sI4234
Vslp
p4235
sI4235
Vsmallbusiness
p4236
sI4236
Vsmalldickproblems
p4237
sI4237
Vsmashart
p4238
sI4238
Vsmashbros
p4239
sI4239
Vsmashcirclejerk
p4240
sI4240
Vsmashgifs
p4241
sI4241
Vsmoking
p4242
sI4242
Vsnackexchange
p4243
sI4243
Vsnakes
p4244
sI4244
Vsnapchat
p4245
sI4245
Vsneakermarket
p4246
sI4246
Vsnes
p4247
sI4247
Vsnooker
p4248
sI4248
Vsnowboarding
p4249
sI4249
Vsocalhiking
p4250
sI4250
Vsoccer
p4251
sI4251
Vsoccer_jp
p4252
sI4252
Vsoccercirclejerk
p4253
sI4253
Vsoccerspirits
p4254
sI4254
Vsoccerstreams
p4255
sI4255
Vsocialanxiety
p4256
sI4256
Vsocialism
p4257
sI4257
Vsocialmedia
p4258
sI4258
Vsocialskills
p4259
sI4259
Vsocialwork
p4260
sI4260
Vsociology
p4261
sI4261
Vsociopath
p4262
sI4262
Vsoftware
p4263
sI4263
Vsoftwaregore
p4264
sI4264
Vsoftwareswap
p4265
sI4265
Vsolar
p4266
sI4266
Vsolotravel
p4267
sI4267
Vsomethingimade
p4268
sI4268
Vsorceryofthespectacle
p4269
sI4269
Vsousvide
p4270
sI4270
Vsouthafrica
p4271
sI4271
Vsouthcarolina
p4272
sI4272
Vsouthpark
p4273
sI4273
Vsoylent
p4274
sI4274
Vspace
p4275
sI4275
Vspaceengine
p4276
sI4276
Vspaceengineers
p4277
sI4277
Vspaceporn
p4278
sI4278
Vspacex
p4279
sI4279
Vspain
p4280
sI4280
Vspam
p4281
sI4281
Vspartanrace
p4282
sI4282
Vspeedrun
p4283
sI4283
Vspelunky
p4284
sI4284
Vspheremasterrace
p4285
sI4285
Vspicy
p4286
sI4286
Vspiderbro
p4287
sI4287
Vspiders
p4288
sI4288
Vspikes
p4289
sI4289
Vspirituality
p4290
sI4290
Vsplatoon
p4291
sI4291
Vspongebob
p4292
sI4292
Vsports
p4293
sI4293
Vsportsbook
p4294
sI4294
Vsportster
p4295
sI4295
Vspotify
p4296
sI4296
Vspotted
p4297
sI4297
VspringfieldMO
p4298
sI4298
Vsquash
p4299
sI4299
Vstalker
p4300
sI4300
Vstandupshots
p4301
sI4301
Vstarbound
p4302
sI4302
Vstarbucks
p4303
sI4303
Vstarcitizen
p4304
sI4304
Vstarcraft
p4305
sI4305
Vstarlets
p4306
sI4306
Vstarterpacks
p4307
sI4307
Vstartrek
p4308
sI4308
Vstartups
p4309
sI4309
Vstarwarsrebels
p4310
sI4310
Vstarwarstrader
p4311
sI4311
Vstateball
p4312
sI4312
Vstatistics
p4313
sI4313
Vsteak
p4314
sI4314
Vsteamdeals
p4315
sI4315
Vsteamgiveaway
p4316
sI4316
Vsteampunk
p4317
sI4317
Vsteamr
p4318
sI4318
Vsteelers
p4319
sI4319
Vsteinsgate
p4320
sI4320
Vstencils
p4321
sI4321
Vstephenking
p4322
sI4322
Vstepparents
p4323
sI4323
Vsteroids
p4324
sI4324
Vstevedangle
p4325
sI4325
Vstevenuniverse
p4326
sI4326
Vstilltrying
p4327
sI4327
Vstlouisblues
p4328
sI4328
Vsto
p4329
sI4329
Vstobuilds
p4330
sI4330
Vstockholm
p4331
sI4331
Vstocks
p4332
sI4332
Vstonerrock
p4333
sI4333
Vstopdrinking
p4334
sI4334
Vstopsmoking
p4335
sI4335
Vstoryofseasons
p4336
sI4336
Vstraightedge
p4337
sI4337
Vstraya
p4338
sI4338
Vstreetphotography
p4339
sI4339
Vstreetwear
p4340
sI4340
Vstrife
p4341
sI4341
Vstunfisk
p4342
sI4342
Vsubaru
p4343
sI4343
Vsubmechanophobia
p4344
sI4344
Vsubnautica
p4345
sI4345
Vsubredditcancer
p4346
sI4346
Vsubredditreports
p4347
sI4347
Vsucculents
p4348
sI4348
Vsufficiencybot
p4349
sI4349
Vsugarfreemua
p4350
sI4350
Vsugarlifestyleforum
p4351
sI4351
Vsuggestmeabook
p4352
sI4352
Vsuicidegirls
p4353
sI4353
Vsummonerschool
p4354
sI4354
Vsummonerswar
p4355
sI4355
Vsuns
p4356
sI4356
Vsunsetshimmer
p4357
sI4357
VsupergirlTV
p4358
sI4358
Vsuperhoops
p4359
sI4359
Vsuperleague
p4360
sI4360
Vsuperman
p4361
sI4361
Vsupermoto
p4362
sI4362
Vsuperstarsmtown
p4363
sI4363
Vsupremeclothing
p4364
sI4364
Vsurfing
p4365
sI4365
Vsurvivor
p4366
sI4366
Vsurvivorcirclejerk
p4367
sI4367
Vsushi
p4368
sI4368
Vsvenskpolitik
p4369
sI4369
Vswanseacity
p4370
sI4370
Vswarmsim
p4371
sI4371
Vsweden
p4372
sI4372
Vswgemu
p4373
sI4373
Vswift
p4374
sI4374
Vswoleacceptance
p4375
sI4375
Vswordartonline
p4376
sI4376
Vswrpg
p4377
sI4377
Vswtor
p4378
sI4378
Vsydney
p4379
sI4379
Vsynology
p4380
sI4380
Vsynthesizers
p4381
sI4381
Vsyriancivilwar
p4382
sI4382
Vsysadmin
p4383
sI4383
VtDCS
p4384
sI4384
Vtabletopgamedesign
p4385
sI4385
Vtabletopsimulator
p4386
sI4386
Vtablets
p4387
sI4387
Vtacobell
p4388
sI4388
Vtaekwondo
p4389
sI4389
Vtaiwan
p4390
sI4390
Vtales
p4391
sI4391
Vtalesfromcallcenters
p4392
sI4392
Vtalesfromtechsupport
p4393
sI4393
Vtalkshows
p4394
sI4394
Vtall
p4395
sI4395
Vtampa
p4396
sI4396
Vtampabayrays
p4397
sI4397
Vtappedout
p4398
sI4398
Vtarantulas
p4399
sI4399
Vtarot
p4400
sI4400
Vtasker
p4401
sI4401
Vtattoo
p4402
sI4402
Vtattoos
p4403
sI4403
Vtax
p4404
sI4404
Vtdi
p4405
sI4405
Vtea
p4406
sI4406
Vteaching
p4407
sI4407
Vteam60s
p4408
sI4408
Vtech
p4409
sI4409
Vtechnews
p4410
sI4410
Vtechnology
p4411
sI4411
Vtecholitics
p4412
sI4412
Vtechsupport
p4413
sI4413
Vtechsupportgore
p4414
sI4414
Vtechsupportmacgyver
p4415
sI4415
Vtechtheatre
p4416
sI4416
Vteenagers
p4417
sI4417
Vteenrelationships
p4418
sI4418
Vtelescopes
p4419
sI4419
Vtelevision
p4420
sI4420
Vtelltale
p4421
sI4421
Vtennis
p4422
sI4422
Vterriblefacebookmemes
p4423
sI4423
Vtesdcares
p4424
sI4424
Vteslamotors
p4425
sI4425
Vteslore
p4426
sI4426
Vtest
p4427
sI4427
Vtexas
p4428
sI4428
Vtexasents
p4429
sI4429
Vtf2
p4430
sI4430
Vtf2trade
p4431
sI4431
Vtfc
p4432
sI4432
Vthalassophobia
p4433
sI4433
VthatHappened
p4434
sI4434
VtheColdWarGame
p4435
sI4435
VtheNvidiaShield
p4436
sI4436
Vthebachelor
p4437
sI4437
Vthebutton
p4438
sI4438
Vthedivision
p4439
sI4439
Vtheflash
p4440
sI4440
Vthefollowing
p4441
sI4441
Vthegoodwife
p4442
sI4442
Vthegreatsub
p4443
sI4443
Vthelastofus
p4444
sI4444
Vthelastofusfactions
p4445
sI4445
Vthelongdark
p4446
sI4446
Vthemapgame
p4447
sI4447
Vthemoddingofisaac
p4448
sI4448
Vthemountaingoats
p4449
sI4449
Vthenetherlands
p4450
sI4450
Vthepiratebay
p4451
sI4451
Vthesims
p4452
sI4452
Vthesopranos
p4453
sI4453
Vtheticket
p4454
sI4454
Vthevoice
p4455
sI4455
Vthewalkingdead
p4456
sI4456
Vthewestwing
p4457
sI4457
Vthewitcher3
p4458
sI4458
Vtheydidthemath
p4459
sI4459
Vthick
p4460
sI4460
Vthinkpad
p4461
sI4461
Vtifu
p4462
sI4462
Vtightdresses
p4463
sI4463
Vtimbers
p4464
sI4464
Vtimberwolves
p4465
sI4465
Vting
p4466
sI4466
Vtinnitus
p4467
sI4467
Vtinydick
p4468
sI4468
Vtipofmyjoystick
p4469
sI4469
Vtipofmypenis
p4470
sI4470
Vtipofmytongue
p4471
sI4471
Vtitanfall
p4472
sI4472
Vtitlegore
p4473
sI4473
Vtmobile
p4474
sI4474
Vtodayilearned
p4475
sI4475
Vtoledo
p4476
sI4476
Vtolkienfans
p4477
sI4477
Vtomhiddleston
p4478
sI4478
Vtonightsdinner
p4479
sI4479
Vtoosoon
p4480
sI4480
Vtoronto
p4481
sI4481
Vtorontobiking
p4482
sI4482
Vtorontoraptors
p4483
sI4483
Vtorrents
p4484
sI4484
Vtotalwar
p4485
sI4485
Vtouhou
p4486
sI4486
Vtoyexchange
p4487
sI4487
Vtrackandfield
p4488
sI4488
Vtrackers
p4489
sI4489
Vtrackertalk
p4490
sI4490
Vtrailerparkboys
p4491
sI4491
Vtrailers
p4492
sI4492
Vtrailrunning
p4493
sI4493
Vtrains
p4494
sI4494
Vtrance
p4495
sI4495
Vtransformers
p4496
sI4496
Vtransgender
p4497
sI4497
Vtransgendercirclejerk
p4498
sI4498
Vtranslator
p4499
sI4499
Vtranspassing
p4500
sI4500
Vtranspositive
p4501
sI4501
Vtranstimelines
p4502
sI4502
Vtrap
p4503
sI4503
Vtrapmuzik
p4504
sI4504
Vtrapproduction
p4505
sI4505
Vtraps
p4506
sI4506
Vtrashy
p4507
sI4507
Vtrashyboners
p4508
sI4508
Vtravel
p4509
sI4509
Vtreedibles
p4510
sI4510
Vtreeofsavior
p4511
sI4511
Vtrees
p4512
sI4512
Vtreesgonewild
p4513
sI4513
Vtrendingsubreddits
p4514
sI4514
Vtressless
p4515
sI4515
Vtriangle
p4516
sI4516
Vtriathlon
p4517
sI4517
Vtrollabot
p4518
sI4518
Vtrucksim
p4519
sI4519
Vtruegaming
p4520
sI4520
Vtruetf2
p4521
sI4521
Vtruezelda
p4522
sI4522
Vtrumpet
p4523
sI4523
Vtrypophobia
p4524
sI4524
Vttcafterloss
p4525
sI4525
Vtulsa
p4526
sI4526
Vtumblr
p4527
sI4527
Vturning
p4528
sI4528
Vturtle
p4529
sI4529
Vtvdrama_jp
p4530
sI4530
Vtwentyonepilots
p4531
sI4531
Vtwinks
p4532
sI4532
Vtwinpeaks
p4533
sI4533
Vtwitchplayspokemon
p4534
sI4534
Vtypography
p4535
sI4535
Vuber
p4536
sI4536
Vuberdrivers
p4537
sI4537
Vucf
p4538
sI4538
Vucla
p4539
sI4539
Vudub
p4540
sI4540
Vufc
p4541
sI4541
Vufl
p4542
sI4542
Vuglyduckling
p4543
sI4543
Vuhccourtroom
p4544
sI4544
Vukbike
p4545
sI4545
Vukipparty
p4546
sI4546
Vukpolitics
p4547
sI4547
Vukraina
p4548
sI4548
Vuktrees
p4549
sI4549
Vukulele
p4550
sI4550
Vultimate
p4551
sI4551
Vultrahardcore
p4552
sI4552
Vundelete
p4553
sI4553
Vunexpectedjihad
p4554
sI4554
Vunitedkingdom
p4555
sI4555
Vunixporn
p4556
sI4556
Vunpopularopinion
p4557
sI4557
Vunrealengine
p4558
sI4558
Vunturned
p4559
sI4559
Vuofm
p4560
sI4560
Vuofmn
p4561
sI4561
Vurbanexploration
p4562
sI4562
Vurbanplanning
p4563
sI4563
Vusedpanties
p4564
sI4564
Vusenet
p4565
sI4565
Vuserexperience
p4566
sI4566
Vuspolitics
p4567
sI4567
Vussoccer
p4568
sI4568
Vutdallas
p4569
sI4569
Vuvtrade
p4570
sI4570
Vuwaterloo
p4571
sI4571
Vuwo
p4572
sI4572
Vuwotm8
p4573
sI4573
Vvagabond
p4574
sI4574
Vvainglorygame
p4575
sI4575
Vvancouver
p4576
sI4576
Vvandwellers
p4577
sI4577
Vvapeitforward
p4578
sI4578
Vvaporents
p4579
sI4579
Vvba
p4580
sI4580
Vvegan
p4581
sI4581
Vvegancirclejerk
p4582
sI4582
Vveganfitness
p4583
sI4583
Vvegas
p4584
sI4584
Vvegetarian
p4585
sI4585
Vventurebros
p4586
sI4586
Vverizon
p4587
sI4587
Vvermont
p4588
sI4588
Vvertcoin
p4589
sI4589
Vvexillology
p4590
sI4590
Vvfx
p4591
sI4591
Vvideo
p4592
sI4592
Vvideogamedunkey
p4593
sI4593
Vvideography
p4594
sI4594
Vvideos
p4595
sI4595
Vvikingstv
p4596
sI4596
Vvim
p4597
sI4597
Vvintageaudio
p4598
sI4598
Vvinyl
p4599
sI4599
Vvirtualreality
p4600
sI4600
Vvisualnovels
p4601
sI4601
Vvita
p4602
sI4602
Vvmware
p4603
sI4603
Vvolleyball
p4604
sI4604
Vvzla
p4605
sI4605
Vwaiting_to_try
p4606
sI4606
Vwakarusa
p4607
sI4607
Vwakfu
p4608
sI4608
Vwallpaper
p4609
sI4609
Vwallpapers
p4610
sI4610
Vwallstreetbets
p4611
sI4611
Vwalmart
p4612
sI4612
Vwarcraftlore
p4613
sI4613
Vwardrobepurge
p4614
sI4614
Vwargame
p4615
sI4615
Vwarriors
p4616
sI4616
Vwartrade
p4617
sI4617
Vwashingtondc
p4618
sI4618
Vwashingtonwizards
p4619
sI4619
Vwatch_dogs
p4620
sI4620
Vwatchinganime
p4621
sI4621
Vwatchpeopledie
p4622
sI4622
Vwatercooling
p4623
sI4623
Vwaterloo
p4624
sI4624
Vwayhome
p4625
sI4625
Vweather
p4626
sI4626
Vweb_design
p4627
sI4627
Vwebcomics
p4628
sI4628
Vwebdev
p4629
sI4629
Vwebhosting
p4630
sI4630
Vwec
p4631
sI4631
Vwedding
p4632
sI4632
Vweddingplanning
p4633
sI4633
Vweeabootales
p4634
sI4634
Vweekendgunnit
p4635
sI4635
Vweezer
p4636
sI4636
Vweightlifting
p4637
sI4637
Vweightroom
p4638
sI4638
VwhatcarshouldIbuy
p4639
sI4639
Vwhatisthisthing
p4640
sI4640
Vwhatsthatbook
p4641
sI4641
Vwhatstheword
p4642
sI4642
Vwhatsthisbird
p4643
sI4643
Vwhatsthisbug
p4644
sI4644
Vwhatsthisplant
p4645
sI4645
Vwhatsthisrock
p4646
sI4646
Vwhatsthisworth
p4647
sI4647
Vwheelanddeal
p4648
sI4648
Vwheredidthesodago
p4649
sI4649
Vwhichbike
p4650
sI4650
Vwhiskey
p4651
sI4651
Vwhiteknighting
p4652
sI4652
Vwhitepeoplegifs
p4653
sI4653
Vwhitesox
p4654
sI4654
Vwhitewater
p4655
sI4655
Vwhoselineisitanyway
p4656
sI4656
Vwhowouldwin
p4657
sI4657
Vwichita
p4658
sI4658
Vwicked_edge
p4659
sI4659
Vwien
p4660
sI4660
Vwifesharing
p4661
sI4661
Vwiiu
p4662
sI4662
Vwikipedia
p4663
sI4663
Vwildhockey
p4664
sI4664
Vwincest
p4665
sI4665
Vwindows
p4666
sI4666
Vwindows8
p4667
sI4667
Vwindowsphone
p4668
sI4668
Vwine
p4669
sI4669
Vwineorcheese
p4670
sI4670
Vwinnipegjets
p4671
sI4671
Vwisconsin
p4672
sI4672
Vwitcher
p4673
sI4673
Vwma
p4674
sI4674
Vwoahdude
p4675
sI4675
Vwoiafpowers
p4676
sI4676
Vwomen
p4677
sI4677
Vwoodworking
p4678
sI4678
Vworkgonewild
p4679
sI4679
Vworldbuilding
p4680
sI4680
Vworldnews
p4681
sI4681
Vworldofpvp
p4682
sI4682
Vworldpolitics
p4683
sI4683
Vworldpowers
p4684
sI4684
Vworstof
p4685
sI4685
Vwow
p4686
sI4686
Vwoweconomy
p4687
sI4687
Vwowguilds
p4688
sI4688
Vwowservers
p4689
sI4689
Vwowthissubexists
p4690
sI4690
Vwrestling
p4691
sI4691
Vwrestlingisreddit
p4692
sI4692
Vwriting
p4693
sI4693
Vwsgy
p4694
sI4694
Vwwenetwork
p4695
sI4695
Vwwesupercard
p4696
sI4696
VxTrill
p4697
sI4697
Vxbmc
p4698
sI4698
Vxbox
p4699
sI4699
Vxbox360
p4700
sI4700
Vxboxone
p4701
sI4701
Vxkcd
p4702
sI4702
Vxmen
p4703
sI4703
Vxposed
p4704
sI4704
Vxray
p4705
sI4705
Vxxfitness
p4706
sI4706
Vxxketo
p4707
sI4707
Vyankees
p4708
sI4708
Vyaoi
p4709
sI4709
Vyiff
p4710
sI4710
Vynab
p4711
sI4711
Vyoga
p4712
sI4712
Vyogscastkim
p4713
sI4713
Vyorku
p4714
sI4714
Vyoudontsurf
p4715
sI4715
Vyoutube
p4716
sI4716
Vyoutubehaiku
p4717
sI4717
Vyoutubers
p4718
sI4718
Vyoyhammer
p4719
sI4719
Vyugioh
p4720
sI4720
Vzelda
p4721
sI4721
Vzen
p4722
sI4722
Vzenfone2
p4723
sI4723
Vzerocarb
p4724
sI4724
Vzombies
p4725
sI4725
Vzookeeperbattle
p4726
sI4726
Vzoophilia
p4727
s.